
TIMER.elf:     file format elf32-avr

Sections:
Idx Name          Size      VMA       LMA       File off  Algn
  0 .text         00003be2  00000000  00000000  00000094  2**1
                  CONTENTS, ALLOC, LOAD, READONLY, CODE
  1 .data         0000012c  00800060  00003be2  00003c76  2**0
                  CONTENTS, ALLOC, LOAD, DATA
  2 .bss          00000022  0080018c  0080018c  00003da2  2**0
                  ALLOC
  3 .stab         00004218  00000000  00000000  00003da4  2**2
                  CONTENTS, READONLY, DEBUGGING
  4 .stabstr      00001e7d  00000000  00000000  00007fbc  2**0
                  CONTENTS, READONLY, DEBUGGING
  5 .debug_aranges 00000180  00000000  00000000  00009e39  2**0
                  CONTENTS, READONLY, DEBUGGING
  6 .debug_pubnames 000001d1  00000000  00000000  00009fb9  2**0
                  CONTENTS, READONLY, DEBUGGING
  7 .debug_info   00002010  00000000  00000000  0000a18a  2**0
                  CONTENTS, READONLY, DEBUGGING
  8 .debug_abbrev 00001161  00000000  00000000  0000c19a  2**0
                  CONTENTS, READONLY, DEBUGGING
  9 .debug_line   00001003  00000000  00000000  0000d2fb  2**0
                  CONTENTS, READONLY, DEBUGGING
 10 .debug_frame  000001a0  00000000  00000000  0000e300  2**2
                  CONTENTS, READONLY, DEBUGGING
 11 .debug_str    000002be  00000000  00000000  0000e4a0  2**0
                  CONTENTS, READONLY, DEBUGGING
 12 .debug_loc    0000090e  00000000  00000000  0000e75e  2**0
                  CONTENTS, READONLY, DEBUGGING
 13 .debug_ranges 00000050  00000000  00000000  0000f06c  2**0
                  CONTENTS, READONLY, DEBUGGING

Disassembly of section .text:

00000000 <__vectors>:
       0:	0c 94 2a 00 	jmp	0x54	; 0x54 <__ctors_end>
       4:	0c 94 f7 17 	jmp	0x2fee	; 0x2fee <__vector_1>
       8:	0c 94 2a 18 	jmp	0x3054	; 0x3054 <__vector_2>
       c:	0c 94 5d 18 	jmp	0x30ba	; 0x30ba <__vector_3>
      10:	0c 94 47 00 	jmp	0x8e	; 0x8e <__bad_interrupt>
      14:	0c 94 47 00 	jmp	0x8e	; 0x8e <__bad_interrupt>
      18:	0c 94 64 13 	jmp	0x26c8	; 0x26c8 <__vector_6>
      1c:	0c 94 47 00 	jmp	0x8e	; 0x8e <__bad_interrupt>
      20:	0c 94 47 00 	jmp	0x8e	; 0x8e <__bad_interrupt>
      24:	0c 94 47 00 	jmp	0x8e	; 0x8e <__bad_interrupt>
      28:	0c 94 fe 12 	jmp	0x25fc	; 0x25fc <__vector_10>
      2c:	0c 94 31 13 	jmp	0x2662	; 0x2662 <__vector_11>
      30:	0c 94 47 00 	jmp	0x8e	; 0x8e <__bad_interrupt>
      34:	0c 94 47 00 	jmp	0x8e	; 0x8e <__bad_interrupt>
      38:	0c 94 47 00 	jmp	0x8e	; 0x8e <__bad_interrupt>
      3c:	0c 94 47 00 	jmp	0x8e	; 0x8e <__bad_interrupt>
      40:	0c 94 0c 15 	jmp	0x2a18	; 0x2a18 <__vector_16>
      44:	0c 94 47 00 	jmp	0x8e	; 0x8e <__bad_interrupt>
      48:	0c 94 47 00 	jmp	0x8e	; 0x8e <__bad_interrupt>
      4c:	0c 94 47 00 	jmp	0x8e	; 0x8e <__bad_interrupt>
      50:	0c 94 47 00 	jmp	0x8e	; 0x8e <__bad_interrupt>

00000054 <__ctors_end>:
      54:	11 24       	eor	r1, r1
      56:	1f be       	out	0x3f, r1	; 63
      58:	cf e5       	ldi	r28, 0x5F	; 95
      5a:	d8 e0       	ldi	r29, 0x08	; 8
      5c:	de bf       	out	0x3e, r29	; 62
      5e:	cd bf       	out	0x3d, r28	; 61

00000060 <__do_copy_data>:
      60:	11 e0       	ldi	r17, 0x01	; 1
      62:	a0 e6       	ldi	r26, 0x60	; 96
      64:	b0 e0       	ldi	r27, 0x00	; 0
      66:	e2 ee       	ldi	r30, 0xE2	; 226
      68:	fb e3       	ldi	r31, 0x3B	; 59
      6a:	02 c0       	rjmp	.+4      	; 0x70 <.do_copy_data_start>

0000006c <.do_copy_data_loop>:
      6c:	05 90       	lpm	r0, Z+
      6e:	0d 92       	st	X+, r0

00000070 <.do_copy_data_start>:
      70:	ac 38       	cpi	r26, 0x8C	; 140
      72:	b1 07       	cpc	r27, r17
      74:	d9 f7       	brne	.-10     	; 0x6c <.do_copy_data_loop>

00000076 <__do_clear_bss>:
      76:	11 e0       	ldi	r17, 0x01	; 1
      78:	ac e8       	ldi	r26, 0x8C	; 140
      7a:	b1 e0       	ldi	r27, 0x01	; 1
      7c:	01 c0       	rjmp	.+2      	; 0x80 <.do_clear_bss_start>

0000007e <.do_clear_bss_loop>:
      7e:	1d 92       	st	X+, r1

00000080 <.do_clear_bss_start>:
      80:	ae 3a       	cpi	r26, 0xAE	; 174
      82:	b1 07       	cpc	r27, r17
      84:	e1 f7       	brne	.-8      	; 0x7e <.do_clear_bss_loop>
      86:	0e 94 b9 1c 	call	0x3972	; 0x3972 <main>
      8a:	0c 94 ef 1d 	jmp	0x3bde	; 0x3bde <_exit>

0000008e <__bad_interrupt>:
      8e:	0c 94 00 00 	jmp	0	; 0x0 <__vectors>

00000092 <__fixunssfsi>:
      92:	ef 92       	push	r14
      94:	ff 92       	push	r15
      96:	0f 93       	push	r16
      98:	1f 93       	push	r17
      9a:	7b 01       	movw	r14, r22
      9c:	8c 01       	movw	r16, r24
      9e:	20 e0       	ldi	r18, 0x00	; 0
      a0:	30 e0       	ldi	r19, 0x00	; 0
      a2:	40 e0       	ldi	r20, 0x00	; 0
      a4:	5f e4       	ldi	r21, 0x4F	; 79
      a6:	0e 94 49 03 	call	0x692	; 0x692 <__gesf2>
      aa:	88 23       	and	r24, r24
      ac:	8c f0       	brlt	.+34     	; 0xd0 <__fixunssfsi+0x3e>
      ae:	c8 01       	movw	r24, r16
      b0:	b7 01       	movw	r22, r14
      b2:	20 e0       	ldi	r18, 0x00	; 0
      b4:	30 e0       	ldi	r19, 0x00	; 0
      b6:	40 e0       	ldi	r20, 0x00	; 0
      b8:	5f e4       	ldi	r21, 0x4F	; 79
      ba:	0e 94 c1 01 	call	0x382	; 0x382 <__subsf3>
      be:	0e 94 07 04 	call	0x80e	; 0x80e <__fixsfsi>
      c2:	9b 01       	movw	r18, r22
      c4:	ac 01       	movw	r20, r24
      c6:	20 50       	subi	r18, 0x00	; 0
      c8:	30 40       	sbci	r19, 0x00	; 0
      ca:	40 40       	sbci	r20, 0x00	; 0
      cc:	50 48       	sbci	r21, 0x80	; 128
      ce:	06 c0       	rjmp	.+12     	; 0xdc <__fixunssfsi+0x4a>
      d0:	c8 01       	movw	r24, r16
      d2:	b7 01       	movw	r22, r14
      d4:	0e 94 07 04 	call	0x80e	; 0x80e <__fixsfsi>
      d8:	9b 01       	movw	r18, r22
      da:	ac 01       	movw	r20, r24
      dc:	b9 01       	movw	r22, r18
      de:	ca 01       	movw	r24, r20
      e0:	1f 91       	pop	r17
      e2:	0f 91       	pop	r16
      e4:	ff 90       	pop	r15
      e6:	ef 90       	pop	r14
      e8:	08 95       	ret

000000ea <_fpadd_parts>:
      ea:	a0 e0       	ldi	r26, 0x00	; 0
      ec:	b0 e0       	ldi	r27, 0x00	; 0
      ee:	eb e7       	ldi	r30, 0x7B	; 123
      f0:	f0 e0       	ldi	r31, 0x00	; 0
      f2:	0c 94 b8 1d 	jmp	0x3b70	; 0x3b70 <__prologue_saves__>
      f6:	dc 01       	movw	r26, r24
      f8:	2b 01       	movw	r4, r22
      fa:	fa 01       	movw	r30, r20
      fc:	9c 91       	ld	r25, X
      fe:	92 30       	cpi	r25, 0x02	; 2
     100:	08 f4       	brcc	.+2      	; 0x104 <_fpadd_parts+0x1a>
     102:	39 c1       	rjmp	.+626    	; 0x376 <_fpadd_parts+0x28c>
     104:	eb 01       	movw	r28, r22
     106:	88 81       	ld	r24, Y
     108:	82 30       	cpi	r24, 0x02	; 2
     10a:	08 f4       	brcc	.+2      	; 0x10e <_fpadd_parts+0x24>
     10c:	33 c1       	rjmp	.+614    	; 0x374 <_fpadd_parts+0x28a>
     10e:	94 30       	cpi	r25, 0x04	; 4
     110:	69 f4       	brne	.+26     	; 0x12c <_fpadd_parts+0x42>
     112:	84 30       	cpi	r24, 0x04	; 4
     114:	09 f0       	breq	.+2      	; 0x118 <_fpadd_parts+0x2e>
     116:	2f c1       	rjmp	.+606    	; 0x376 <_fpadd_parts+0x28c>
     118:	11 96       	adiw	r26, 0x01	; 1
     11a:	9c 91       	ld	r25, X
     11c:	11 97       	sbiw	r26, 0x01	; 1
     11e:	89 81       	ldd	r24, Y+1	; 0x01
     120:	98 17       	cp	r25, r24
     122:	09 f4       	brne	.+2      	; 0x126 <_fpadd_parts+0x3c>
     124:	28 c1       	rjmp	.+592    	; 0x376 <_fpadd_parts+0x28c>
     126:	a0 e6       	ldi	r26, 0x60	; 96
     128:	b0 e0       	ldi	r27, 0x00	; 0
     12a:	25 c1       	rjmp	.+586    	; 0x376 <_fpadd_parts+0x28c>
     12c:	84 30       	cpi	r24, 0x04	; 4
     12e:	09 f4       	brne	.+2      	; 0x132 <_fpadd_parts+0x48>
     130:	21 c1       	rjmp	.+578    	; 0x374 <_fpadd_parts+0x28a>
     132:	82 30       	cpi	r24, 0x02	; 2
     134:	a9 f4       	brne	.+42     	; 0x160 <_fpadd_parts+0x76>
     136:	92 30       	cpi	r25, 0x02	; 2
     138:	09 f0       	breq	.+2      	; 0x13c <_fpadd_parts+0x52>
     13a:	1d c1       	rjmp	.+570    	; 0x376 <_fpadd_parts+0x28c>
     13c:	9a 01       	movw	r18, r20
     13e:	ad 01       	movw	r20, r26
     140:	88 e0       	ldi	r24, 0x08	; 8
     142:	ea 01       	movw	r28, r20
     144:	09 90       	ld	r0, Y+
     146:	ae 01       	movw	r20, r28
     148:	e9 01       	movw	r28, r18
     14a:	09 92       	st	Y+, r0
     14c:	9e 01       	movw	r18, r28
     14e:	81 50       	subi	r24, 0x01	; 1
     150:	c1 f7       	brne	.-16     	; 0x142 <_fpadd_parts+0x58>
     152:	e2 01       	movw	r28, r4
     154:	89 81       	ldd	r24, Y+1	; 0x01
     156:	11 96       	adiw	r26, 0x01	; 1
     158:	9c 91       	ld	r25, X
     15a:	89 23       	and	r24, r25
     15c:	81 83       	std	Z+1, r24	; 0x01
     15e:	08 c1       	rjmp	.+528    	; 0x370 <_fpadd_parts+0x286>
     160:	92 30       	cpi	r25, 0x02	; 2
     162:	09 f4       	brne	.+2      	; 0x166 <_fpadd_parts+0x7c>
     164:	07 c1       	rjmp	.+526    	; 0x374 <_fpadd_parts+0x28a>
     166:	12 96       	adiw	r26, 0x02	; 2
     168:	2d 90       	ld	r2, X+
     16a:	3c 90       	ld	r3, X
     16c:	13 97       	sbiw	r26, 0x03	; 3
     16e:	eb 01       	movw	r28, r22
     170:	8a 81       	ldd	r24, Y+2	; 0x02
     172:	9b 81       	ldd	r25, Y+3	; 0x03
     174:	14 96       	adiw	r26, 0x04	; 4
     176:	ad 90       	ld	r10, X+
     178:	bd 90       	ld	r11, X+
     17a:	cd 90       	ld	r12, X+
     17c:	dc 90       	ld	r13, X
     17e:	17 97       	sbiw	r26, 0x07	; 7
     180:	ec 80       	ldd	r14, Y+4	; 0x04
     182:	fd 80       	ldd	r15, Y+5	; 0x05
     184:	0e 81       	ldd	r16, Y+6	; 0x06
     186:	1f 81       	ldd	r17, Y+7	; 0x07
     188:	91 01       	movw	r18, r2
     18a:	28 1b       	sub	r18, r24
     18c:	39 0b       	sbc	r19, r25
     18e:	b9 01       	movw	r22, r18
     190:	37 ff       	sbrs	r19, 7
     192:	04 c0       	rjmp	.+8      	; 0x19c <_fpadd_parts+0xb2>
     194:	66 27       	eor	r22, r22
     196:	77 27       	eor	r23, r23
     198:	62 1b       	sub	r22, r18
     19a:	73 0b       	sbc	r23, r19
     19c:	60 32       	cpi	r22, 0x20	; 32
     19e:	71 05       	cpc	r23, r1
     1a0:	0c f0       	brlt	.+2      	; 0x1a4 <_fpadd_parts+0xba>
     1a2:	61 c0       	rjmp	.+194    	; 0x266 <_fpadd_parts+0x17c>
     1a4:	12 16       	cp	r1, r18
     1a6:	13 06       	cpc	r1, r19
     1a8:	6c f5       	brge	.+90     	; 0x204 <_fpadd_parts+0x11a>
     1aa:	37 01       	movw	r6, r14
     1ac:	48 01       	movw	r8, r16
     1ae:	06 2e       	mov	r0, r22
     1b0:	04 c0       	rjmp	.+8      	; 0x1ba <_fpadd_parts+0xd0>
     1b2:	96 94       	lsr	r9
     1b4:	87 94       	ror	r8
     1b6:	77 94       	ror	r7
     1b8:	67 94       	ror	r6
     1ba:	0a 94       	dec	r0
     1bc:	d2 f7       	brpl	.-12     	; 0x1b2 <_fpadd_parts+0xc8>
     1be:	21 e0       	ldi	r18, 0x01	; 1
     1c0:	30 e0       	ldi	r19, 0x00	; 0
     1c2:	40 e0       	ldi	r20, 0x00	; 0
     1c4:	50 e0       	ldi	r21, 0x00	; 0
     1c6:	04 c0       	rjmp	.+8      	; 0x1d0 <_fpadd_parts+0xe6>
     1c8:	22 0f       	add	r18, r18
     1ca:	33 1f       	adc	r19, r19
     1cc:	44 1f       	adc	r20, r20
     1ce:	55 1f       	adc	r21, r21
     1d0:	6a 95       	dec	r22
     1d2:	d2 f7       	brpl	.-12     	; 0x1c8 <_fpadd_parts+0xde>
     1d4:	21 50       	subi	r18, 0x01	; 1
     1d6:	30 40       	sbci	r19, 0x00	; 0
     1d8:	40 40       	sbci	r20, 0x00	; 0
     1da:	50 40       	sbci	r21, 0x00	; 0
     1dc:	2e 21       	and	r18, r14
     1de:	3f 21       	and	r19, r15
     1e0:	40 23       	and	r20, r16
     1e2:	51 23       	and	r21, r17
     1e4:	21 15       	cp	r18, r1
     1e6:	31 05       	cpc	r19, r1
     1e8:	41 05       	cpc	r20, r1
     1ea:	51 05       	cpc	r21, r1
     1ec:	21 f0       	breq	.+8      	; 0x1f6 <_fpadd_parts+0x10c>
     1ee:	21 e0       	ldi	r18, 0x01	; 1
     1f0:	30 e0       	ldi	r19, 0x00	; 0
     1f2:	40 e0       	ldi	r20, 0x00	; 0
     1f4:	50 e0       	ldi	r21, 0x00	; 0
     1f6:	79 01       	movw	r14, r18
     1f8:	8a 01       	movw	r16, r20
     1fa:	e6 28       	or	r14, r6
     1fc:	f7 28       	or	r15, r7
     1fe:	08 29       	or	r16, r8
     200:	19 29       	or	r17, r9
     202:	3c c0       	rjmp	.+120    	; 0x27c <_fpadd_parts+0x192>
     204:	23 2b       	or	r18, r19
     206:	d1 f1       	breq	.+116    	; 0x27c <_fpadd_parts+0x192>
     208:	26 0e       	add	r2, r22
     20a:	37 1e       	adc	r3, r23
     20c:	35 01       	movw	r6, r10
     20e:	46 01       	movw	r8, r12
     210:	06 2e       	mov	r0, r22
     212:	04 c0       	rjmp	.+8      	; 0x21c <_fpadd_parts+0x132>
     214:	96 94       	lsr	r9
     216:	87 94       	ror	r8
     218:	77 94       	ror	r7
     21a:	67 94       	ror	r6
     21c:	0a 94       	dec	r0
     21e:	d2 f7       	brpl	.-12     	; 0x214 <_fpadd_parts+0x12a>
     220:	21 e0       	ldi	r18, 0x01	; 1
     222:	30 e0       	ldi	r19, 0x00	; 0
     224:	40 e0       	ldi	r20, 0x00	; 0
     226:	50 e0       	ldi	r21, 0x00	; 0
     228:	04 c0       	rjmp	.+8      	; 0x232 <_fpadd_parts+0x148>
     22a:	22 0f       	add	r18, r18
     22c:	33 1f       	adc	r19, r19
     22e:	44 1f       	adc	r20, r20
     230:	55 1f       	adc	r21, r21
     232:	6a 95       	dec	r22
     234:	d2 f7       	brpl	.-12     	; 0x22a <_fpadd_parts+0x140>
     236:	21 50       	subi	r18, 0x01	; 1
     238:	30 40       	sbci	r19, 0x00	; 0
     23a:	40 40       	sbci	r20, 0x00	; 0
     23c:	50 40       	sbci	r21, 0x00	; 0
     23e:	2a 21       	and	r18, r10
     240:	3b 21       	and	r19, r11
     242:	4c 21       	and	r20, r12
     244:	5d 21       	and	r21, r13
     246:	21 15       	cp	r18, r1
     248:	31 05       	cpc	r19, r1
     24a:	41 05       	cpc	r20, r1
     24c:	51 05       	cpc	r21, r1
     24e:	21 f0       	breq	.+8      	; 0x258 <_fpadd_parts+0x16e>
     250:	21 e0       	ldi	r18, 0x01	; 1
     252:	30 e0       	ldi	r19, 0x00	; 0
     254:	40 e0       	ldi	r20, 0x00	; 0
     256:	50 e0       	ldi	r21, 0x00	; 0
     258:	59 01       	movw	r10, r18
     25a:	6a 01       	movw	r12, r20
     25c:	a6 28       	or	r10, r6
     25e:	b7 28       	or	r11, r7
     260:	c8 28       	or	r12, r8
     262:	d9 28       	or	r13, r9
     264:	0b c0       	rjmp	.+22     	; 0x27c <_fpadd_parts+0x192>
     266:	82 15       	cp	r24, r2
     268:	93 05       	cpc	r25, r3
     26a:	2c f0       	brlt	.+10     	; 0x276 <_fpadd_parts+0x18c>
     26c:	1c 01       	movw	r2, r24
     26e:	aa 24       	eor	r10, r10
     270:	bb 24       	eor	r11, r11
     272:	65 01       	movw	r12, r10
     274:	03 c0       	rjmp	.+6      	; 0x27c <_fpadd_parts+0x192>
     276:	ee 24       	eor	r14, r14
     278:	ff 24       	eor	r15, r15
     27a:	87 01       	movw	r16, r14
     27c:	11 96       	adiw	r26, 0x01	; 1
     27e:	9c 91       	ld	r25, X
     280:	d2 01       	movw	r26, r4
     282:	11 96       	adiw	r26, 0x01	; 1
     284:	8c 91       	ld	r24, X
     286:	98 17       	cp	r25, r24
     288:	09 f4       	brne	.+2      	; 0x28c <_fpadd_parts+0x1a2>
     28a:	45 c0       	rjmp	.+138    	; 0x316 <_fpadd_parts+0x22c>
     28c:	99 23       	and	r25, r25
     28e:	39 f0       	breq	.+14     	; 0x29e <_fpadd_parts+0x1b4>
     290:	a8 01       	movw	r20, r16
     292:	97 01       	movw	r18, r14
     294:	2a 19       	sub	r18, r10
     296:	3b 09       	sbc	r19, r11
     298:	4c 09       	sbc	r20, r12
     29a:	5d 09       	sbc	r21, r13
     29c:	06 c0       	rjmp	.+12     	; 0x2aa <_fpadd_parts+0x1c0>
     29e:	a6 01       	movw	r20, r12
     2a0:	95 01       	movw	r18, r10
     2a2:	2e 19       	sub	r18, r14
     2a4:	3f 09       	sbc	r19, r15
     2a6:	40 0b       	sbc	r20, r16
     2a8:	51 0b       	sbc	r21, r17
     2aa:	57 fd       	sbrc	r21, 7
     2ac:	08 c0       	rjmp	.+16     	; 0x2be <_fpadd_parts+0x1d4>
     2ae:	11 82       	std	Z+1, r1	; 0x01
     2b0:	33 82       	std	Z+3, r3	; 0x03
     2b2:	22 82       	std	Z+2, r2	; 0x02
     2b4:	24 83       	std	Z+4, r18	; 0x04
     2b6:	35 83       	std	Z+5, r19	; 0x05
     2b8:	46 83       	std	Z+6, r20	; 0x06
     2ba:	57 83       	std	Z+7, r21	; 0x07
     2bc:	1d c0       	rjmp	.+58     	; 0x2f8 <_fpadd_parts+0x20e>
     2be:	81 e0       	ldi	r24, 0x01	; 1
     2c0:	81 83       	std	Z+1, r24	; 0x01
     2c2:	33 82       	std	Z+3, r3	; 0x03
     2c4:	22 82       	std	Z+2, r2	; 0x02
     2c6:	88 27       	eor	r24, r24
     2c8:	99 27       	eor	r25, r25
     2ca:	dc 01       	movw	r26, r24
     2cc:	82 1b       	sub	r24, r18
     2ce:	93 0b       	sbc	r25, r19
     2d0:	a4 0b       	sbc	r26, r20
     2d2:	b5 0b       	sbc	r27, r21
     2d4:	84 83       	std	Z+4, r24	; 0x04
     2d6:	95 83       	std	Z+5, r25	; 0x05
     2d8:	a6 83       	std	Z+6, r26	; 0x06
     2da:	b7 83       	std	Z+7, r27	; 0x07
     2dc:	0d c0       	rjmp	.+26     	; 0x2f8 <_fpadd_parts+0x20e>
     2de:	22 0f       	add	r18, r18
     2e0:	33 1f       	adc	r19, r19
     2e2:	44 1f       	adc	r20, r20
     2e4:	55 1f       	adc	r21, r21
     2e6:	24 83       	std	Z+4, r18	; 0x04
     2e8:	35 83       	std	Z+5, r19	; 0x05
     2ea:	46 83       	std	Z+6, r20	; 0x06
     2ec:	57 83       	std	Z+7, r21	; 0x07
     2ee:	82 81       	ldd	r24, Z+2	; 0x02
     2f0:	93 81       	ldd	r25, Z+3	; 0x03
     2f2:	01 97       	sbiw	r24, 0x01	; 1
     2f4:	93 83       	std	Z+3, r25	; 0x03
     2f6:	82 83       	std	Z+2, r24	; 0x02
     2f8:	24 81       	ldd	r18, Z+4	; 0x04
     2fa:	35 81       	ldd	r19, Z+5	; 0x05
     2fc:	46 81       	ldd	r20, Z+6	; 0x06
     2fe:	57 81       	ldd	r21, Z+7	; 0x07
     300:	da 01       	movw	r26, r20
     302:	c9 01       	movw	r24, r18
     304:	01 97       	sbiw	r24, 0x01	; 1
     306:	a1 09       	sbc	r26, r1
     308:	b1 09       	sbc	r27, r1
     30a:	8f 5f       	subi	r24, 0xFF	; 255
     30c:	9f 4f       	sbci	r25, 0xFF	; 255
     30e:	af 4f       	sbci	r26, 0xFF	; 255
     310:	bf 43       	sbci	r27, 0x3F	; 63
     312:	28 f3       	brcs	.-54     	; 0x2de <_fpadd_parts+0x1f4>
     314:	0b c0       	rjmp	.+22     	; 0x32c <_fpadd_parts+0x242>
     316:	91 83       	std	Z+1, r25	; 0x01
     318:	33 82       	std	Z+3, r3	; 0x03
     31a:	22 82       	std	Z+2, r2	; 0x02
     31c:	ea 0c       	add	r14, r10
     31e:	fb 1c       	adc	r15, r11
     320:	0c 1d       	adc	r16, r12
     322:	1d 1d       	adc	r17, r13
     324:	e4 82       	std	Z+4, r14	; 0x04
     326:	f5 82       	std	Z+5, r15	; 0x05
     328:	06 83       	std	Z+6, r16	; 0x06
     32a:	17 83       	std	Z+7, r17	; 0x07
     32c:	83 e0       	ldi	r24, 0x03	; 3
     32e:	80 83       	st	Z, r24
     330:	24 81       	ldd	r18, Z+4	; 0x04
     332:	35 81       	ldd	r19, Z+5	; 0x05
     334:	46 81       	ldd	r20, Z+6	; 0x06
     336:	57 81       	ldd	r21, Z+7	; 0x07
     338:	57 ff       	sbrs	r21, 7
     33a:	1a c0       	rjmp	.+52     	; 0x370 <_fpadd_parts+0x286>
     33c:	c9 01       	movw	r24, r18
     33e:	aa 27       	eor	r26, r26
     340:	97 fd       	sbrc	r25, 7
     342:	a0 95       	com	r26
     344:	ba 2f       	mov	r27, r26
     346:	81 70       	andi	r24, 0x01	; 1
     348:	90 70       	andi	r25, 0x00	; 0
     34a:	a0 70       	andi	r26, 0x00	; 0
     34c:	b0 70       	andi	r27, 0x00	; 0
     34e:	56 95       	lsr	r21
     350:	47 95       	ror	r20
     352:	37 95       	ror	r19
     354:	27 95       	ror	r18
     356:	82 2b       	or	r24, r18
     358:	93 2b       	or	r25, r19
     35a:	a4 2b       	or	r26, r20
     35c:	b5 2b       	or	r27, r21
     35e:	84 83       	std	Z+4, r24	; 0x04
     360:	95 83       	std	Z+5, r25	; 0x05
     362:	a6 83       	std	Z+6, r26	; 0x06
     364:	b7 83       	std	Z+7, r27	; 0x07
     366:	82 81       	ldd	r24, Z+2	; 0x02
     368:	93 81       	ldd	r25, Z+3	; 0x03
     36a:	01 96       	adiw	r24, 0x01	; 1
     36c:	93 83       	std	Z+3, r25	; 0x03
     36e:	82 83       	std	Z+2, r24	; 0x02
     370:	df 01       	movw	r26, r30
     372:	01 c0       	rjmp	.+2      	; 0x376 <_fpadd_parts+0x28c>
     374:	d2 01       	movw	r26, r4
     376:	cd 01       	movw	r24, r26
     378:	cd b7       	in	r28, 0x3d	; 61
     37a:	de b7       	in	r29, 0x3e	; 62
     37c:	e2 e1       	ldi	r30, 0x12	; 18
     37e:	0c 94 d4 1d 	jmp	0x3ba8	; 0x3ba8 <__epilogue_restores__>

00000382 <__subsf3>:
     382:	a0 e2       	ldi	r26, 0x20	; 32
     384:	b0 e0       	ldi	r27, 0x00	; 0
     386:	e7 ec       	ldi	r30, 0xC7	; 199
     388:	f1 e0       	ldi	r31, 0x01	; 1
     38a:	0c 94 c4 1d 	jmp	0x3b88	; 0x3b88 <__prologue_saves__+0x18>
     38e:	69 83       	std	Y+1, r22	; 0x01
     390:	7a 83       	std	Y+2, r23	; 0x02
     392:	8b 83       	std	Y+3, r24	; 0x03
     394:	9c 83       	std	Y+4, r25	; 0x04
     396:	2d 83       	std	Y+5, r18	; 0x05
     398:	3e 83       	std	Y+6, r19	; 0x06
     39a:	4f 83       	std	Y+7, r20	; 0x07
     39c:	58 87       	std	Y+8, r21	; 0x08
     39e:	e9 e0       	ldi	r30, 0x09	; 9
     3a0:	ee 2e       	mov	r14, r30
     3a2:	f1 2c       	mov	r15, r1
     3a4:	ec 0e       	add	r14, r28
     3a6:	fd 1e       	adc	r15, r29
     3a8:	ce 01       	movw	r24, r28
     3aa:	01 96       	adiw	r24, 0x01	; 1
     3ac:	b7 01       	movw	r22, r14
     3ae:	0e 94 7f 05 	call	0xafe	; 0xafe <__unpack_f>
     3b2:	8e 01       	movw	r16, r28
     3b4:	0f 5e       	subi	r16, 0xEF	; 239
     3b6:	1f 4f       	sbci	r17, 0xFF	; 255
     3b8:	ce 01       	movw	r24, r28
     3ba:	05 96       	adiw	r24, 0x05	; 5
     3bc:	b8 01       	movw	r22, r16
     3be:	0e 94 7f 05 	call	0xafe	; 0xafe <__unpack_f>
     3c2:	8a 89       	ldd	r24, Y+18	; 0x12
     3c4:	91 e0       	ldi	r25, 0x01	; 1
     3c6:	89 27       	eor	r24, r25
     3c8:	8a 8b       	std	Y+18, r24	; 0x12
     3ca:	c7 01       	movw	r24, r14
     3cc:	b8 01       	movw	r22, r16
     3ce:	ae 01       	movw	r20, r28
     3d0:	47 5e       	subi	r20, 0xE7	; 231
     3d2:	5f 4f       	sbci	r21, 0xFF	; 255
     3d4:	0e 94 75 00 	call	0xea	; 0xea <_fpadd_parts>
     3d8:	0e 94 aa 04 	call	0x954	; 0x954 <__pack_f>
     3dc:	a0 96       	adiw	r28, 0x20	; 32
     3de:	e6 e0       	ldi	r30, 0x06	; 6
     3e0:	0c 94 e0 1d 	jmp	0x3bc0	; 0x3bc0 <__epilogue_restores__+0x18>

000003e4 <__addsf3>:
     3e4:	a0 e2       	ldi	r26, 0x20	; 32
     3e6:	b0 e0       	ldi	r27, 0x00	; 0
     3e8:	e8 ef       	ldi	r30, 0xF8	; 248
     3ea:	f1 e0       	ldi	r31, 0x01	; 1
     3ec:	0c 94 c4 1d 	jmp	0x3b88	; 0x3b88 <__prologue_saves__+0x18>
     3f0:	69 83       	std	Y+1, r22	; 0x01
     3f2:	7a 83       	std	Y+2, r23	; 0x02
     3f4:	8b 83       	std	Y+3, r24	; 0x03
     3f6:	9c 83       	std	Y+4, r25	; 0x04
     3f8:	2d 83       	std	Y+5, r18	; 0x05
     3fa:	3e 83       	std	Y+6, r19	; 0x06
     3fc:	4f 83       	std	Y+7, r20	; 0x07
     3fe:	58 87       	std	Y+8, r21	; 0x08
     400:	f9 e0       	ldi	r31, 0x09	; 9
     402:	ef 2e       	mov	r14, r31
     404:	f1 2c       	mov	r15, r1
     406:	ec 0e       	add	r14, r28
     408:	fd 1e       	adc	r15, r29
     40a:	ce 01       	movw	r24, r28
     40c:	01 96       	adiw	r24, 0x01	; 1
     40e:	b7 01       	movw	r22, r14
     410:	0e 94 7f 05 	call	0xafe	; 0xafe <__unpack_f>
     414:	8e 01       	movw	r16, r28
     416:	0f 5e       	subi	r16, 0xEF	; 239
     418:	1f 4f       	sbci	r17, 0xFF	; 255
     41a:	ce 01       	movw	r24, r28
     41c:	05 96       	adiw	r24, 0x05	; 5
     41e:	b8 01       	movw	r22, r16
     420:	0e 94 7f 05 	call	0xafe	; 0xafe <__unpack_f>
     424:	c7 01       	movw	r24, r14
     426:	b8 01       	movw	r22, r16
     428:	ae 01       	movw	r20, r28
     42a:	47 5e       	subi	r20, 0xE7	; 231
     42c:	5f 4f       	sbci	r21, 0xFF	; 255
     42e:	0e 94 75 00 	call	0xea	; 0xea <_fpadd_parts>
     432:	0e 94 aa 04 	call	0x954	; 0x954 <__pack_f>
     436:	a0 96       	adiw	r28, 0x20	; 32
     438:	e6 e0       	ldi	r30, 0x06	; 6
     43a:	0c 94 e0 1d 	jmp	0x3bc0	; 0x3bc0 <__epilogue_restores__+0x18>

0000043e <__mulsf3>:
     43e:	a0 e2       	ldi	r26, 0x20	; 32
     440:	b0 e0       	ldi	r27, 0x00	; 0
     442:	e5 e2       	ldi	r30, 0x25	; 37
     444:	f2 e0       	ldi	r31, 0x02	; 2
     446:	0c 94 b8 1d 	jmp	0x3b70	; 0x3b70 <__prologue_saves__>
     44a:	69 83       	std	Y+1, r22	; 0x01
     44c:	7a 83       	std	Y+2, r23	; 0x02
     44e:	8b 83       	std	Y+3, r24	; 0x03
     450:	9c 83       	std	Y+4, r25	; 0x04
     452:	2d 83       	std	Y+5, r18	; 0x05
     454:	3e 83       	std	Y+6, r19	; 0x06
     456:	4f 83       	std	Y+7, r20	; 0x07
     458:	58 87       	std	Y+8, r21	; 0x08
     45a:	ce 01       	movw	r24, r28
     45c:	01 96       	adiw	r24, 0x01	; 1
     45e:	be 01       	movw	r22, r28
     460:	67 5f       	subi	r22, 0xF7	; 247
     462:	7f 4f       	sbci	r23, 0xFF	; 255
     464:	0e 94 7f 05 	call	0xafe	; 0xafe <__unpack_f>
     468:	ce 01       	movw	r24, r28
     46a:	05 96       	adiw	r24, 0x05	; 5
     46c:	be 01       	movw	r22, r28
     46e:	6f 5e       	subi	r22, 0xEF	; 239
     470:	7f 4f       	sbci	r23, 0xFF	; 255
     472:	0e 94 7f 05 	call	0xafe	; 0xafe <__unpack_f>
     476:	99 85       	ldd	r25, Y+9	; 0x09
     478:	92 30       	cpi	r25, 0x02	; 2
     47a:	88 f0       	brcs	.+34     	; 0x49e <__mulsf3+0x60>
     47c:	89 89       	ldd	r24, Y+17	; 0x11
     47e:	82 30       	cpi	r24, 0x02	; 2
     480:	c8 f0       	brcs	.+50     	; 0x4b4 <__mulsf3+0x76>
     482:	94 30       	cpi	r25, 0x04	; 4
     484:	19 f4       	brne	.+6      	; 0x48c <__mulsf3+0x4e>
     486:	82 30       	cpi	r24, 0x02	; 2
     488:	51 f4       	brne	.+20     	; 0x49e <__mulsf3+0x60>
     48a:	04 c0       	rjmp	.+8      	; 0x494 <__mulsf3+0x56>
     48c:	84 30       	cpi	r24, 0x04	; 4
     48e:	29 f4       	brne	.+10     	; 0x49a <__mulsf3+0x5c>
     490:	92 30       	cpi	r25, 0x02	; 2
     492:	81 f4       	brne	.+32     	; 0x4b4 <__mulsf3+0x76>
     494:	80 e6       	ldi	r24, 0x60	; 96
     496:	90 e0       	ldi	r25, 0x00	; 0
     498:	c6 c0       	rjmp	.+396    	; 0x626 <__mulsf3+0x1e8>
     49a:	92 30       	cpi	r25, 0x02	; 2
     49c:	49 f4       	brne	.+18     	; 0x4b0 <__mulsf3+0x72>
     49e:	20 e0       	ldi	r18, 0x00	; 0
     4a0:	9a 85       	ldd	r25, Y+10	; 0x0a
     4a2:	8a 89       	ldd	r24, Y+18	; 0x12
     4a4:	98 13       	cpse	r25, r24
     4a6:	21 e0       	ldi	r18, 0x01	; 1
     4a8:	2a 87       	std	Y+10, r18	; 0x0a
     4aa:	ce 01       	movw	r24, r28
     4ac:	09 96       	adiw	r24, 0x09	; 9
     4ae:	bb c0       	rjmp	.+374    	; 0x626 <__mulsf3+0x1e8>
     4b0:	82 30       	cpi	r24, 0x02	; 2
     4b2:	49 f4       	brne	.+18     	; 0x4c6 <__mulsf3+0x88>
     4b4:	20 e0       	ldi	r18, 0x00	; 0
     4b6:	9a 85       	ldd	r25, Y+10	; 0x0a
     4b8:	8a 89       	ldd	r24, Y+18	; 0x12
     4ba:	98 13       	cpse	r25, r24
     4bc:	21 e0       	ldi	r18, 0x01	; 1
     4be:	2a 8b       	std	Y+18, r18	; 0x12
     4c0:	ce 01       	movw	r24, r28
     4c2:	41 96       	adiw	r24, 0x11	; 17
     4c4:	b0 c0       	rjmp	.+352    	; 0x626 <__mulsf3+0x1e8>
     4c6:	2d 84       	ldd	r2, Y+13	; 0x0d
     4c8:	3e 84       	ldd	r3, Y+14	; 0x0e
     4ca:	4f 84       	ldd	r4, Y+15	; 0x0f
     4cc:	58 88       	ldd	r5, Y+16	; 0x10
     4ce:	6d 88       	ldd	r6, Y+21	; 0x15
     4d0:	7e 88       	ldd	r7, Y+22	; 0x16
     4d2:	8f 88       	ldd	r8, Y+23	; 0x17
     4d4:	98 8c       	ldd	r9, Y+24	; 0x18
     4d6:	ee 24       	eor	r14, r14
     4d8:	ff 24       	eor	r15, r15
     4da:	87 01       	movw	r16, r14
     4dc:	aa 24       	eor	r10, r10
     4de:	bb 24       	eor	r11, r11
     4e0:	65 01       	movw	r12, r10
     4e2:	40 e0       	ldi	r20, 0x00	; 0
     4e4:	50 e0       	ldi	r21, 0x00	; 0
     4e6:	60 e0       	ldi	r22, 0x00	; 0
     4e8:	70 e0       	ldi	r23, 0x00	; 0
     4ea:	e0 e0       	ldi	r30, 0x00	; 0
     4ec:	f0 e0       	ldi	r31, 0x00	; 0
     4ee:	c1 01       	movw	r24, r2
     4f0:	81 70       	andi	r24, 0x01	; 1
     4f2:	90 70       	andi	r25, 0x00	; 0
     4f4:	89 2b       	or	r24, r25
     4f6:	e9 f0       	breq	.+58     	; 0x532 <__mulsf3+0xf4>
     4f8:	e6 0c       	add	r14, r6
     4fa:	f7 1c       	adc	r15, r7
     4fc:	08 1d       	adc	r16, r8
     4fe:	19 1d       	adc	r17, r9
     500:	9a 01       	movw	r18, r20
     502:	ab 01       	movw	r20, r22
     504:	2a 0d       	add	r18, r10
     506:	3b 1d       	adc	r19, r11
     508:	4c 1d       	adc	r20, r12
     50a:	5d 1d       	adc	r21, r13
     50c:	80 e0       	ldi	r24, 0x00	; 0
     50e:	90 e0       	ldi	r25, 0x00	; 0
     510:	a0 e0       	ldi	r26, 0x00	; 0
     512:	b0 e0       	ldi	r27, 0x00	; 0
     514:	e6 14       	cp	r14, r6
     516:	f7 04       	cpc	r15, r7
     518:	08 05       	cpc	r16, r8
     51a:	19 05       	cpc	r17, r9
     51c:	20 f4       	brcc	.+8      	; 0x526 <__mulsf3+0xe8>
     51e:	81 e0       	ldi	r24, 0x01	; 1
     520:	90 e0       	ldi	r25, 0x00	; 0
     522:	a0 e0       	ldi	r26, 0x00	; 0
     524:	b0 e0       	ldi	r27, 0x00	; 0
     526:	ba 01       	movw	r22, r20
     528:	a9 01       	movw	r20, r18
     52a:	48 0f       	add	r20, r24
     52c:	59 1f       	adc	r21, r25
     52e:	6a 1f       	adc	r22, r26
     530:	7b 1f       	adc	r23, r27
     532:	aa 0c       	add	r10, r10
     534:	bb 1c       	adc	r11, r11
     536:	cc 1c       	adc	r12, r12
     538:	dd 1c       	adc	r13, r13
     53a:	97 fe       	sbrs	r9, 7
     53c:	08 c0       	rjmp	.+16     	; 0x54e <__mulsf3+0x110>
     53e:	81 e0       	ldi	r24, 0x01	; 1
     540:	90 e0       	ldi	r25, 0x00	; 0
     542:	a0 e0       	ldi	r26, 0x00	; 0
     544:	b0 e0       	ldi	r27, 0x00	; 0
     546:	a8 2a       	or	r10, r24
     548:	b9 2a       	or	r11, r25
     54a:	ca 2a       	or	r12, r26
     54c:	db 2a       	or	r13, r27
     54e:	31 96       	adiw	r30, 0x01	; 1
     550:	e0 32       	cpi	r30, 0x20	; 32
     552:	f1 05       	cpc	r31, r1
     554:	49 f0       	breq	.+18     	; 0x568 <__mulsf3+0x12a>
     556:	66 0c       	add	r6, r6
     558:	77 1c       	adc	r7, r7
     55a:	88 1c       	adc	r8, r8
     55c:	99 1c       	adc	r9, r9
     55e:	56 94       	lsr	r5
     560:	47 94       	ror	r4
     562:	37 94       	ror	r3
     564:	27 94       	ror	r2
     566:	c3 cf       	rjmp	.-122    	; 0x4ee <__mulsf3+0xb0>
     568:	fa 85       	ldd	r31, Y+10	; 0x0a
     56a:	ea 89       	ldd	r30, Y+18	; 0x12
     56c:	2b 89       	ldd	r18, Y+19	; 0x13
     56e:	3c 89       	ldd	r19, Y+20	; 0x14
     570:	8b 85       	ldd	r24, Y+11	; 0x0b
     572:	9c 85       	ldd	r25, Y+12	; 0x0c
     574:	28 0f       	add	r18, r24
     576:	39 1f       	adc	r19, r25
     578:	2e 5f       	subi	r18, 0xFE	; 254
     57a:	3f 4f       	sbci	r19, 0xFF	; 255
     57c:	17 c0       	rjmp	.+46     	; 0x5ac <__mulsf3+0x16e>
     57e:	ca 01       	movw	r24, r20
     580:	81 70       	andi	r24, 0x01	; 1
     582:	90 70       	andi	r25, 0x00	; 0
     584:	89 2b       	or	r24, r25
     586:	61 f0       	breq	.+24     	; 0x5a0 <__mulsf3+0x162>
     588:	16 95       	lsr	r17
     58a:	07 95       	ror	r16
     58c:	f7 94       	ror	r15
     58e:	e7 94       	ror	r14
     590:	80 e0       	ldi	r24, 0x00	; 0
     592:	90 e0       	ldi	r25, 0x00	; 0
     594:	a0 e0       	ldi	r26, 0x00	; 0
     596:	b0 e8       	ldi	r27, 0x80	; 128
     598:	e8 2a       	or	r14, r24
     59a:	f9 2a       	or	r15, r25
     59c:	0a 2b       	or	r16, r26
     59e:	1b 2b       	or	r17, r27
     5a0:	76 95       	lsr	r23
     5a2:	67 95       	ror	r22
     5a4:	57 95       	ror	r21
     5a6:	47 95       	ror	r20
     5a8:	2f 5f       	subi	r18, 0xFF	; 255
     5aa:	3f 4f       	sbci	r19, 0xFF	; 255
     5ac:	77 fd       	sbrc	r23, 7
     5ae:	e7 cf       	rjmp	.-50     	; 0x57e <__mulsf3+0x140>
     5b0:	0c c0       	rjmp	.+24     	; 0x5ca <__mulsf3+0x18c>
     5b2:	44 0f       	add	r20, r20
     5b4:	55 1f       	adc	r21, r21
     5b6:	66 1f       	adc	r22, r22
     5b8:	77 1f       	adc	r23, r23
     5ba:	17 fd       	sbrc	r17, 7
     5bc:	41 60       	ori	r20, 0x01	; 1
     5be:	ee 0c       	add	r14, r14
     5c0:	ff 1c       	adc	r15, r15
     5c2:	00 1f       	adc	r16, r16
     5c4:	11 1f       	adc	r17, r17
     5c6:	21 50       	subi	r18, 0x01	; 1
     5c8:	30 40       	sbci	r19, 0x00	; 0
     5ca:	40 30       	cpi	r20, 0x00	; 0
     5cc:	90 e0       	ldi	r25, 0x00	; 0
     5ce:	59 07       	cpc	r21, r25
     5d0:	90 e0       	ldi	r25, 0x00	; 0
     5d2:	69 07       	cpc	r22, r25
     5d4:	90 e4       	ldi	r25, 0x40	; 64
     5d6:	79 07       	cpc	r23, r25
     5d8:	60 f3       	brcs	.-40     	; 0x5b2 <__mulsf3+0x174>
     5da:	2b 8f       	std	Y+27, r18	; 0x1b
     5dc:	3c 8f       	std	Y+28, r19	; 0x1c
     5de:	db 01       	movw	r26, r22
     5e0:	ca 01       	movw	r24, r20
     5e2:	8f 77       	andi	r24, 0x7F	; 127
     5e4:	90 70       	andi	r25, 0x00	; 0
     5e6:	a0 70       	andi	r26, 0x00	; 0
     5e8:	b0 70       	andi	r27, 0x00	; 0
     5ea:	80 34       	cpi	r24, 0x40	; 64
     5ec:	91 05       	cpc	r25, r1
     5ee:	a1 05       	cpc	r26, r1
     5f0:	b1 05       	cpc	r27, r1
     5f2:	61 f4       	brne	.+24     	; 0x60c <__mulsf3+0x1ce>
     5f4:	47 fd       	sbrc	r20, 7
     5f6:	0a c0       	rjmp	.+20     	; 0x60c <__mulsf3+0x1ce>
     5f8:	e1 14       	cp	r14, r1
     5fa:	f1 04       	cpc	r15, r1
     5fc:	01 05       	cpc	r16, r1
     5fe:	11 05       	cpc	r17, r1
     600:	29 f0       	breq	.+10     	; 0x60c <__mulsf3+0x1ce>
     602:	40 5c       	subi	r20, 0xC0	; 192
     604:	5f 4f       	sbci	r21, 0xFF	; 255
     606:	6f 4f       	sbci	r22, 0xFF	; 255
     608:	7f 4f       	sbci	r23, 0xFF	; 255
     60a:	40 78       	andi	r20, 0x80	; 128
     60c:	1a 8e       	std	Y+26, r1	; 0x1a
     60e:	fe 17       	cp	r31, r30
     610:	11 f0       	breq	.+4      	; 0x616 <__mulsf3+0x1d8>
     612:	81 e0       	ldi	r24, 0x01	; 1
     614:	8a 8f       	std	Y+26, r24	; 0x1a
     616:	4d 8f       	std	Y+29, r20	; 0x1d
     618:	5e 8f       	std	Y+30, r21	; 0x1e
     61a:	6f 8f       	std	Y+31, r22	; 0x1f
     61c:	78 a3       	std	Y+32, r23	; 0x20
     61e:	83 e0       	ldi	r24, 0x03	; 3
     620:	89 8f       	std	Y+25, r24	; 0x19
     622:	ce 01       	movw	r24, r28
     624:	49 96       	adiw	r24, 0x19	; 25
     626:	0e 94 aa 04 	call	0x954	; 0x954 <__pack_f>
     62a:	a0 96       	adiw	r28, 0x20	; 32
     62c:	e2 e1       	ldi	r30, 0x12	; 18
     62e:	0c 94 d4 1d 	jmp	0x3ba8	; 0x3ba8 <__epilogue_restores__>

00000632 <__gtsf2>:
     632:	a8 e1       	ldi	r26, 0x18	; 24
     634:	b0 e0       	ldi	r27, 0x00	; 0
     636:	ef e1       	ldi	r30, 0x1F	; 31
     638:	f3 e0       	ldi	r31, 0x03	; 3
     63a:	0c 94 c4 1d 	jmp	0x3b88	; 0x3b88 <__prologue_saves__+0x18>
     63e:	69 83       	std	Y+1, r22	; 0x01
     640:	7a 83       	std	Y+2, r23	; 0x02
     642:	8b 83       	std	Y+3, r24	; 0x03
     644:	9c 83       	std	Y+4, r25	; 0x04
     646:	2d 83       	std	Y+5, r18	; 0x05
     648:	3e 83       	std	Y+6, r19	; 0x06
     64a:	4f 83       	std	Y+7, r20	; 0x07
     64c:	58 87       	std	Y+8, r21	; 0x08
     64e:	89 e0       	ldi	r24, 0x09	; 9
     650:	e8 2e       	mov	r14, r24
     652:	f1 2c       	mov	r15, r1
     654:	ec 0e       	add	r14, r28
     656:	fd 1e       	adc	r15, r29
     658:	ce 01       	movw	r24, r28
     65a:	01 96       	adiw	r24, 0x01	; 1
     65c:	b7 01       	movw	r22, r14
     65e:	0e 94 7f 05 	call	0xafe	; 0xafe <__unpack_f>
     662:	8e 01       	movw	r16, r28
     664:	0f 5e       	subi	r16, 0xEF	; 239
     666:	1f 4f       	sbci	r17, 0xFF	; 255
     668:	ce 01       	movw	r24, r28
     66a:	05 96       	adiw	r24, 0x05	; 5
     66c:	b8 01       	movw	r22, r16
     66e:	0e 94 7f 05 	call	0xafe	; 0xafe <__unpack_f>
     672:	89 85       	ldd	r24, Y+9	; 0x09
     674:	82 30       	cpi	r24, 0x02	; 2
     676:	40 f0       	brcs	.+16     	; 0x688 <__gtsf2+0x56>
     678:	89 89       	ldd	r24, Y+17	; 0x11
     67a:	82 30       	cpi	r24, 0x02	; 2
     67c:	28 f0       	brcs	.+10     	; 0x688 <__gtsf2+0x56>
     67e:	c7 01       	movw	r24, r14
     680:	b8 01       	movw	r22, r16
     682:	0e 94 f7 05 	call	0xbee	; 0xbee <__fpcmp_parts_f>
     686:	01 c0       	rjmp	.+2      	; 0x68a <__gtsf2+0x58>
     688:	8f ef       	ldi	r24, 0xFF	; 255
     68a:	68 96       	adiw	r28, 0x18	; 24
     68c:	e6 e0       	ldi	r30, 0x06	; 6
     68e:	0c 94 e0 1d 	jmp	0x3bc0	; 0x3bc0 <__epilogue_restores__+0x18>

00000692 <__gesf2>:
     692:	a8 e1       	ldi	r26, 0x18	; 24
     694:	b0 e0       	ldi	r27, 0x00	; 0
     696:	ef e4       	ldi	r30, 0x4F	; 79
     698:	f3 e0       	ldi	r31, 0x03	; 3
     69a:	0c 94 c4 1d 	jmp	0x3b88	; 0x3b88 <__prologue_saves__+0x18>
     69e:	69 83       	std	Y+1, r22	; 0x01
     6a0:	7a 83       	std	Y+2, r23	; 0x02
     6a2:	8b 83       	std	Y+3, r24	; 0x03
     6a4:	9c 83       	std	Y+4, r25	; 0x04
     6a6:	2d 83       	std	Y+5, r18	; 0x05
     6a8:	3e 83       	std	Y+6, r19	; 0x06
     6aa:	4f 83       	std	Y+7, r20	; 0x07
     6ac:	58 87       	std	Y+8, r21	; 0x08
     6ae:	89 e0       	ldi	r24, 0x09	; 9
     6b0:	e8 2e       	mov	r14, r24
     6b2:	f1 2c       	mov	r15, r1
     6b4:	ec 0e       	add	r14, r28
     6b6:	fd 1e       	adc	r15, r29
     6b8:	ce 01       	movw	r24, r28
     6ba:	01 96       	adiw	r24, 0x01	; 1
     6bc:	b7 01       	movw	r22, r14
     6be:	0e 94 7f 05 	call	0xafe	; 0xafe <__unpack_f>
     6c2:	8e 01       	movw	r16, r28
     6c4:	0f 5e       	subi	r16, 0xEF	; 239
     6c6:	1f 4f       	sbci	r17, 0xFF	; 255
     6c8:	ce 01       	movw	r24, r28
     6ca:	05 96       	adiw	r24, 0x05	; 5
     6cc:	b8 01       	movw	r22, r16
     6ce:	0e 94 7f 05 	call	0xafe	; 0xafe <__unpack_f>
     6d2:	89 85       	ldd	r24, Y+9	; 0x09
     6d4:	82 30       	cpi	r24, 0x02	; 2
     6d6:	40 f0       	brcs	.+16     	; 0x6e8 <__gesf2+0x56>
     6d8:	89 89       	ldd	r24, Y+17	; 0x11
     6da:	82 30       	cpi	r24, 0x02	; 2
     6dc:	28 f0       	brcs	.+10     	; 0x6e8 <__gesf2+0x56>
     6de:	c7 01       	movw	r24, r14
     6e0:	b8 01       	movw	r22, r16
     6e2:	0e 94 f7 05 	call	0xbee	; 0xbee <__fpcmp_parts_f>
     6e6:	01 c0       	rjmp	.+2      	; 0x6ea <__gesf2+0x58>
     6e8:	8f ef       	ldi	r24, 0xFF	; 255
     6ea:	68 96       	adiw	r28, 0x18	; 24
     6ec:	e6 e0       	ldi	r30, 0x06	; 6
     6ee:	0c 94 e0 1d 	jmp	0x3bc0	; 0x3bc0 <__epilogue_restores__+0x18>

000006f2 <__ltsf2>:
     6f2:	a8 e1       	ldi	r26, 0x18	; 24
     6f4:	b0 e0       	ldi	r27, 0x00	; 0
     6f6:	ef e7       	ldi	r30, 0x7F	; 127
     6f8:	f3 e0       	ldi	r31, 0x03	; 3
     6fa:	0c 94 c4 1d 	jmp	0x3b88	; 0x3b88 <__prologue_saves__+0x18>
     6fe:	69 83       	std	Y+1, r22	; 0x01
     700:	7a 83       	std	Y+2, r23	; 0x02
     702:	8b 83       	std	Y+3, r24	; 0x03
     704:	9c 83       	std	Y+4, r25	; 0x04
     706:	2d 83       	std	Y+5, r18	; 0x05
     708:	3e 83       	std	Y+6, r19	; 0x06
     70a:	4f 83       	std	Y+7, r20	; 0x07
     70c:	58 87       	std	Y+8, r21	; 0x08
     70e:	89 e0       	ldi	r24, 0x09	; 9
     710:	e8 2e       	mov	r14, r24
     712:	f1 2c       	mov	r15, r1
     714:	ec 0e       	add	r14, r28
     716:	fd 1e       	adc	r15, r29
     718:	ce 01       	movw	r24, r28
     71a:	01 96       	adiw	r24, 0x01	; 1
     71c:	b7 01       	movw	r22, r14
     71e:	0e 94 7f 05 	call	0xafe	; 0xafe <__unpack_f>
     722:	8e 01       	movw	r16, r28
     724:	0f 5e       	subi	r16, 0xEF	; 239
     726:	1f 4f       	sbci	r17, 0xFF	; 255
     728:	ce 01       	movw	r24, r28
     72a:	05 96       	adiw	r24, 0x05	; 5
     72c:	b8 01       	movw	r22, r16
     72e:	0e 94 7f 05 	call	0xafe	; 0xafe <__unpack_f>
     732:	89 85       	ldd	r24, Y+9	; 0x09
     734:	82 30       	cpi	r24, 0x02	; 2
     736:	40 f0       	brcs	.+16     	; 0x748 <__ltsf2+0x56>
     738:	89 89       	ldd	r24, Y+17	; 0x11
     73a:	82 30       	cpi	r24, 0x02	; 2
     73c:	28 f0       	brcs	.+10     	; 0x748 <__ltsf2+0x56>
     73e:	c7 01       	movw	r24, r14
     740:	b8 01       	movw	r22, r16
     742:	0e 94 f7 05 	call	0xbee	; 0xbee <__fpcmp_parts_f>
     746:	01 c0       	rjmp	.+2      	; 0x74a <__ltsf2+0x58>
     748:	81 e0       	ldi	r24, 0x01	; 1
     74a:	68 96       	adiw	r28, 0x18	; 24
     74c:	e6 e0       	ldi	r30, 0x06	; 6
     74e:	0c 94 e0 1d 	jmp	0x3bc0	; 0x3bc0 <__epilogue_restores__+0x18>

00000752 <__floatsisf>:
     752:	a8 e0       	ldi	r26, 0x08	; 8
     754:	b0 e0       	ldi	r27, 0x00	; 0
     756:	ef ea       	ldi	r30, 0xAF	; 175
     758:	f3 e0       	ldi	r31, 0x03	; 3
     75a:	0c 94 c1 1d 	jmp	0x3b82	; 0x3b82 <__prologue_saves__+0x12>
     75e:	9b 01       	movw	r18, r22
     760:	ac 01       	movw	r20, r24
     762:	83 e0       	ldi	r24, 0x03	; 3
     764:	89 83       	std	Y+1, r24	; 0x01
     766:	da 01       	movw	r26, r20
     768:	c9 01       	movw	r24, r18
     76a:	88 27       	eor	r24, r24
     76c:	b7 fd       	sbrc	r27, 7
     76e:	83 95       	inc	r24
     770:	99 27       	eor	r25, r25
     772:	aa 27       	eor	r26, r26
     774:	bb 27       	eor	r27, r27
     776:	b8 2e       	mov	r11, r24
     778:	21 15       	cp	r18, r1
     77a:	31 05       	cpc	r19, r1
     77c:	41 05       	cpc	r20, r1
     77e:	51 05       	cpc	r21, r1
     780:	19 f4       	brne	.+6      	; 0x788 <__floatsisf+0x36>
     782:	82 e0       	ldi	r24, 0x02	; 2
     784:	89 83       	std	Y+1, r24	; 0x01
     786:	3a c0       	rjmp	.+116    	; 0x7fc <__floatsisf+0xaa>
     788:	88 23       	and	r24, r24
     78a:	a9 f0       	breq	.+42     	; 0x7b6 <__floatsisf+0x64>
     78c:	20 30       	cpi	r18, 0x00	; 0
     78e:	80 e0       	ldi	r24, 0x00	; 0
     790:	38 07       	cpc	r19, r24
     792:	80 e0       	ldi	r24, 0x00	; 0
     794:	48 07       	cpc	r20, r24
     796:	80 e8       	ldi	r24, 0x80	; 128
     798:	58 07       	cpc	r21, r24
     79a:	29 f4       	brne	.+10     	; 0x7a6 <__floatsisf+0x54>
     79c:	60 e0       	ldi	r22, 0x00	; 0
     79e:	70 e0       	ldi	r23, 0x00	; 0
     7a0:	80 e0       	ldi	r24, 0x00	; 0
     7a2:	9f ec       	ldi	r25, 0xCF	; 207
     7a4:	30 c0       	rjmp	.+96     	; 0x806 <__floatsisf+0xb4>
     7a6:	ee 24       	eor	r14, r14
     7a8:	ff 24       	eor	r15, r15
     7aa:	87 01       	movw	r16, r14
     7ac:	e2 1a       	sub	r14, r18
     7ae:	f3 0a       	sbc	r15, r19
     7b0:	04 0b       	sbc	r16, r20
     7b2:	15 0b       	sbc	r17, r21
     7b4:	02 c0       	rjmp	.+4      	; 0x7ba <__floatsisf+0x68>
     7b6:	79 01       	movw	r14, r18
     7b8:	8a 01       	movw	r16, r20
     7ba:	8e e1       	ldi	r24, 0x1E	; 30
     7bc:	c8 2e       	mov	r12, r24
     7be:	d1 2c       	mov	r13, r1
     7c0:	dc 82       	std	Y+4, r13	; 0x04
     7c2:	cb 82       	std	Y+3, r12	; 0x03
     7c4:	ed 82       	std	Y+5, r14	; 0x05
     7c6:	fe 82       	std	Y+6, r15	; 0x06
     7c8:	0f 83       	std	Y+7, r16	; 0x07
     7ca:	18 87       	std	Y+8, r17	; 0x08
     7cc:	c8 01       	movw	r24, r16
     7ce:	b7 01       	movw	r22, r14
     7d0:	0e 94 5b 04 	call	0x8b6	; 0x8b6 <__clzsi2>
     7d4:	01 97       	sbiw	r24, 0x01	; 1
     7d6:	18 16       	cp	r1, r24
     7d8:	19 06       	cpc	r1, r25
     7da:	84 f4       	brge	.+32     	; 0x7fc <__floatsisf+0xaa>
     7dc:	08 2e       	mov	r0, r24
     7de:	04 c0       	rjmp	.+8      	; 0x7e8 <__floatsisf+0x96>
     7e0:	ee 0c       	add	r14, r14
     7e2:	ff 1c       	adc	r15, r15
     7e4:	00 1f       	adc	r16, r16
     7e6:	11 1f       	adc	r17, r17
     7e8:	0a 94       	dec	r0
     7ea:	d2 f7       	brpl	.-12     	; 0x7e0 <__floatsisf+0x8e>
     7ec:	ed 82       	std	Y+5, r14	; 0x05
     7ee:	fe 82       	std	Y+6, r15	; 0x06
     7f0:	0f 83       	std	Y+7, r16	; 0x07
     7f2:	18 87       	std	Y+8, r17	; 0x08
     7f4:	c8 1a       	sub	r12, r24
     7f6:	d9 0a       	sbc	r13, r25
     7f8:	dc 82       	std	Y+4, r13	; 0x04
     7fa:	cb 82       	std	Y+3, r12	; 0x03
     7fc:	ba 82       	std	Y+2, r11	; 0x02
     7fe:	ce 01       	movw	r24, r28
     800:	01 96       	adiw	r24, 0x01	; 1
     802:	0e 94 aa 04 	call	0x954	; 0x954 <__pack_f>
     806:	28 96       	adiw	r28, 0x08	; 8
     808:	e9 e0       	ldi	r30, 0x09	; 9
     80a:	0c 94 dd 1d 	jmp	0x3bba	; 0x3bba <__epilogue_restores__+0x12>

0000080e <__fixsfsi>:
     80e:	ac e0       	ldi	r26, 0x0C	; 12
     810:	b0 e0       	ldi	r27, 0x00	; 0
     812:	ed e0       	ldi	r30, 0x0D	; 13
     814:	f4 e0       	ldi	r31, 0x04	; 4
     816:	0c 94 c8 1d 	jmp	0x3b90	; 0x3b90 <__prologue_saves__+0x20>
     81a:	69 83       	std	Y+1, r22	; 0x01
     81c:	7a 83       	std	Y+2, r23	; 0x02
     81e:	8b 83       	std	Y+3, r24	; 0x03
     820:	9c 83       	std	Y+4, r25	; 0x04
     822:	ce 01       	movw	r24, r28
     824:	01 96       	adiw	r24, 0x01	; 1
     826:	be 01       	movw	r22, r28
     828:	6b 5f       	subi	r22, 0xFB	; 251
     82a:	7f 4f       	sbci	r23, 0xFF	; 255
     82c:	0e 94 7f 05 	call	0xafe	; 0xafe <__unpack_f>
     830:	8d 81       	ldd	r24, Y+5	; 0x05
     832:	82 30       	cpi	r24, 0x02	; 2
     834:	61 f1       	breq	.+88     	; 0x88e <__stack+0x2f>
     836:	82 30       	cpi	r24, 0x02	; 2
     838:	50 f1       	brcs	.+84     	; 0x88e <__stack+0x2f>
     83a:	84 30       	cpi	r24, 0x04	; 4
     83c:	21 f4       	brne	.+8      	; 0x846 <__fixsfsi+0x38>
     83e:	8e 81       	ldd	r24, Y+6	; 0x06
     840:	88 23       	and	r24, r24
     842:	51 f1       	breq	.+84     	; 0x898 <__stack+0x39>
     844:	2e c0       	rjmp	.+92     	; 0x8a2 <__stack+0x43>
     846:	2f 81       	ldd	r18, Y+7	; 0x07
     848:	38 85       	ldd	r19, Y+8	; 0x08
     84a:	37 fd       	sbrc	r19, 7
     84c:	20 c0       	rjmp	.+64     	; 0x88e <__stack+0x2f>
     84e:	6e 81       	ldd	r22, Y+6	; 0x06
     850:	2f 31       	cpi	r18, 0x1F	; 31
     852:	31 05       	cpc	r19, r1
     854:	1c f0       	brlt	.+6      	; 0x85c <__fixsfsi+0x4e>
     856:	66 23       	and	r22, r22
     858:	f9 f0       	breq	.+62     	; 0x898 <__stack+0x39>
     85a:	23 c0       	rjmp	.+70     	; 0x8a2 <__stack+0x43>
     85c:	8e e1       	ldi	r24, 0x1E	; 30
     85e:	90 e0       	ldi	r25, 0x00	; 0
     860:	82 1b       	sub	r24, r18
     862:	93 0b       	sbc	r25, r19
     864:	29 85       	ldd	r18, Y+9	; 0x09
     866:	3a 85       	ldd	r19, Y+10	; 0x0a
     868:	4b 85       	ldd	r20, Y+11	; 0x0b
     86a:	5c 85       	ldd	r21, Y+12	; 0x0c
     86c:	04 c0       	rjmp	.+8      	; 0x876 <__stack+0x17>
     86e:	56 95       	lsr	r21
     870:	47 95       	ror	r20
     872:	37 95       	ror	r19
     874:	27 95       	ror	r18
     876:	8a 95       	dec	r24
     878:	d2 f7       	brpl	.-12     	; 0x86e <__stack+0xf>
     87a:	66 23       	and	r22, r22
     87c:	b1 f0       	breq	.+44     	; 0x8aa <__stack+0x4b>
     87e:	50 95       	com	r21
     880:	40 95       	com	r20
     882:	30 95       	com	r19
     884:	21 95       	neg	r18
     886:	3f 4f       	sbci	r19, 0xFF	; 255
     888:	4f 4f       	sbci	r20, 0xFF	; 255
     88a:	5f 4f       	sbci	r21, 0xFF	; 255
     88c:	0e c0       	rjmp	.+28     	; 0x8aa <__stack+0x4b>
     88e:	20 e0       	ldi	r18, 0x00	; 0
     890:	30 e0       	ldi	r19, 0x00	; 0
     892:	40 e0       	ldi	r20, 0x00	; 0
     894:	50 e0       	ldi	r21, 0x00	; 0
     896:	09 c0       	rjmp	.+18     	; 0x8aa <__stack+0x4b>
     898:	2f ef       	ldi	r18, 0xFF	; 255
     89a:	3f ef       	ldi	r19, 0xFF	; 255
     89c:	4f ef       	ldi	r20, 0xFF	; 255
     89e:	5f e7       	ldi	r21, 0x7F	; 127
     8a0:	04 c0       	rjmp	.+8      	; 0x8aa <__stack+0x4b>
     8a2:	20 e0       	ldi	r18, 0x00	; 0
     8a4:	30 e0       	ldi	r19, 0x00	; 0
     8a6:	40 e0       	ldi	r20, 0x00	; 0
     8a8:	50 e8       	ldi	r21, 0x80	; 128
     8aa:	b9 01       	movw	r22, r18
     8ac:	ca 01       	movw	r24, r20
     8ae:	2c 96       	adiw	r28, 0x0c	; 12
     8b0:	e2 e0       	ldi	r30, 0x02	; 2
     8b2:	0c 94 e4 1d 	jmp	0x3bc8	; 0x3bc8 <__epilogue_restores__+0x20>

000008b6 <__clzsi2>:
     8b6:	ef 92       	push	r14
     8b8:	ff 92       	push	r15
     8ba:	0f 93       	push	r16
     8bc:	1f 93       	push	r17
     8be:	7b 01       	movw	r14, r22
     8c0:	8c 01       	movw	r16, r24
     8c2:	80 e0       	ldi	r24, 0x00	; 0
     8c4:	e8 16       	cp	r14, r24
     8c6:	80 e0       	ldi	r24, 0x00	; 0
     8c8:	f8 06       	cpc	r15, r24
     8ca:	81 e0       	ldi	r24, 0x01	; 1
     8cc:	08 07       	cpc	r16, r24
     8ce:	80 e0       	ldi	r24, 0x00	; 0
     8d0:	18 07       	cpc	r17, r24
     8d2:	88 f4       	brcc	.+34     	; 0x8f6 <__clzsi2+0x40>
     8d4:	8f ef       	ldi	r24, 0xFF	; 255
     8d6:	e8 16       	cp	r14, r24
     8d8:	f1 04       	cpc	r15, r1
     8da:	01 05       	cpc	r16, r1
     8dc:	11 05       	cpc	r17, r1
     8de:	31 f0       	breq	.+12     	; 0x8ec <__clzsi2+0x36>
     8e0:	28 f0       	brcs	.+10     	; 0x8ec <__clzsi2+0x36>
     8e2:	88 e0       	ldi	r24, 0x08	; 8
     8e4:	90 e0       	ldi	r25, 0x00	; 0
     8e6:	a0 e0       	ldi	r26, 0x00	; 0
     8e8:	b0 e0       	ldi	r27, 0x00	; 0
     8ea:	17 c0       	rjmp	.+46     	; 0x91a <__clzsi2+0x64>
     8ec:	80 e0       	ldi	r24, 0x00	; 0
     8ee:	90 e0       	ldi	r25, 0x00	; 0
     8f0:	a0 e0       	ldi	r26, 0x00	; 0
     8f2:	b0 e0       	ldi	r27, 0x00	; 0
     8f4:	12 c0       	rjmp	.+36     	; 0x91a <__clzsi2+0x64>
     8f6:	80 e0       	ldi	r24, 0x00	; 0
     8f8:	e8 16       	cp	r14, r24
     8fa:	80 e0       	ldi	r24, 0x00	; 0
     8fc:	f8 06       	cpc	r15, r24
     8fe:	80 e0       	ldi	r24, 0x00	; 0
     900:	08 07       	cpc	r16, r24
     902:	81 e0       	ldi	r24, 0x01	; 1
     904:	18 07       	cpc	r17, r24
     906:	28 f0       	brcs	.+10     	; 0x912 <__clzsi2+0x5c>
     908:	88 e1       	ldi	r24, 0x18	; 24
     90a:	90 e0       	ldi	r25, 0x00	; 0
     90c:	a0 e0       	ldi	r26, 0x00	; 0
     90e:	b0 e0       	ldi	r27, 0x00	; 0
     910:	04 c0       	rjmp	.+8      	; 0x91a <__clzsi2+0x64>
     912:	80 e1       	ldi	r24, 0x10	; 16
     914:	90 e0       	ldi	r25, 0x00	; 0
     916:	a0 e0       	ldi	r26, 0x00	; 0
     918:	b0 e0       	ldi	r27, 0x00	; 0
     91a:	20 e2       	ldi	r18, 0x20	; 32
     91c:	30 e0       	ldi	r19, 0x00	; 0
     91e:	40 e0       	ldi	r20, 0x00	; 0
     920:	50 e0       	ldi	r21, 0x00	; 0
     922:	28 1b       	sub	r18, r24
     924:	39 0b       	sbc	r19, r25
     926:	4a 0b       	sbc	r20, r26
     928:	5b 0b       	sbc	r21, r27
     92a:	04 c0       	rjmp	.+8      	; 0x934 <__clzsi2+0x7e>
     92c:	16 95       	lsr	r17
     92e:	07 95       	ror	r16
     930:	f7 94       	ror	r15
     932:	e7 94       	ror	r14
     934:	8a 95       	dec	r24
     936:	d2 f7       	brpl	.-12     	; 0x92c <__clzsi2+0x76>
     938:	f7 01       	movw	r30, r14
     93a:	e8 59       	subi	r30, 0x98	; 152
     93c:	ff 4f       	sbci	r31, 0xFF	; 255
     93e:	80 81       	ld	r24, Z
     940:	28 1b       	sub	r18, r24
     942:	31 09       	sbc	r19, r1
     944:	41 09       	sbc	r20, r1
     946:	51 09       	sbc	r21, r1
     948:	c9 01       	movw	r24, r18
     94a:	1f 91       	pop	r17
     94c:	0f 91       	pop	r16
     94e:	ff 90       	pop	r15
     950:	ef 90       	pop	r14
     952:	08 95       	ret

00000954 <__pack_f>:
     954:	df 92       	push	r13
     956:	ef 92       	push	r14
     958:	ff 92       	push	r15
     95a:	0f 93       	push	r16
     95c:	1f 93       	push	r17
     95e:	fc 01       	movw	r30, r24
     960:	e4 80       	ldd	r14, Z+4	; 0x04
     962:	f5 80       	ldd	r15, Z+5	; 0x05
     964:	06 81       	ldd	r16, Z+6	; 0x06
     966:	17 81       	ldd	r17, Z+7	; 0x07
     968:	d1 80       	ldd	r13, Z+1	; 0x01
     96a:	80 81       	ld	r24, Z
     96c:	82 30       	cpi	r24, 0x02	; 2
     96e:	48 f4       	brcc	.+18     	; 0x982 <__pack_f+0x2e>
     970:	80 e0       	ldi	r24, 0x00	; 0
     972:	90 e0       	ldi	r25, 0x00	; 0
     974:	a0 e1       	ldi	r26, 0x10	; 16
     976:	b0 e0       	ldi	r27, 0x00	; 0
     978:	e8 2a       	or	r14, r24
     97a:	f9 2a       	or	r15, r25
     97c:	0a 2b       	or	r16, r26
     97e:	1b 2b       	or	r17, r27
     980:	a5 c0       	rjmp	.+330    	; 0xacc <__pack_f+0x178>
     982:	84 30       	cpi	r24, 0x04	; 4
     984:	09 f4       	brne	.+2      	; 0x988 <__pack_f+0x34>
     986:	9f c0       	rjmp	.+318    	; 0xac6 <__pack_f+0x172>
     988:	82 30       	cpi	r24, 0x02	; 2
     98a:	21 f4       	brne	.+8      	; 0x994 <__pack_f+0x40>
     98c:	ee 24       	eor	r14, r14
     98e:	ff 24       	eor	r15, r15
     990:	87 01       	movw	r16, r14
     992:	05 c0       	rjmp	.+10     	; 0x99e <__pack_f+0x4a>
     994:	e1 14       	cp	r14, r1
     996:	f1 04       	cpc	r15, r1
     998:	01 05       	cpc	r16, r1
     99a:	11 05       	cpc	r17, r1
     99c:	19 f4       	brne	.+6      	; 0x9a4 <__pack_f+0x50>
     99e:	e0 e0       	ldi	r30, 0x00	; 0
     9a0:	f0 e0       	ldi	r31, 0x00	; 0
     9a2:	96 c0       	rjmp	.+300    	; 0xad0 <__pack_f+0x17c>
     9a4:	62 81       	ldd	r22, Z+2	; 0x02
     9a6:	73 81       	ldd	r23, Z+3	; 0x03
     9a8:	9f ef       	ldi	r25, 0xFF	; 255
     9aa:	62 38       	cpi	r22, 0x82	; 130
     9ac:	79 07       	cpc	r23, r25
     9ae:	0c f0       	brlt	.+2      	; 0x9b2 <__pack_f+0x5e>
     9b0:	5b c0       	rjmp	.+182    	; 0xa68 <__pack_f+0x114>
     9b2:	22 e8       	ldi	r18, 0x82	; 130
     9b4:	3f ef       	ldi	r19, 0xFF	; 255
     9b6:	26 1b       	sub	r18, r22
     9b8:	37 0b       	sbc	r19, r23
     9ba:	2a 31       	cpi	r18, 0x1A	; 26
     9bc:	31 05       	cpc	r19, r1
     9be:	2c f0       	brlt	.+10     	; 0x9ca <__pack_f+0x76>
     9c0:	20 e0       	ldi	r18, 0x00	; 0
     9c2:	30 e0       	ldi	r19, 0x00	; 0
     9c4:	40 e0       	ldi	r20, 0x00	; 0
     9c6:	50 e0       	ldi	r21, 0x00	; 0
     9c8:	2a c0       	rjmp	.+84     	; 0xa1e <__pack_f+0xca>
     9ca:	b8 01       	movw	r22, r16
     9cc:	a7 01       	movw	r20, r14
     9ce:	02 2e       	mov	r0, r18
     9d0:	04 c0       	rjmp	.+8      	; 0x9da <__pack_f+0x86>
     9d2:	76 95       	lsr	r23
     9d4:	67 95       	ror	r22
     9d6:	57 95       	ror	r21
     9d8:	47 95       	ror	r20
     9da:	0a 94       	dec	r0
     9dc:	d2 f7       	brpl	.-12     	; 0x9d2 <__pack_f+0x7e>
     9de:	81 e0       	ldi	r24, 0x01	; 1
     9e0:	90 e0       	ldi	r25, 0x00	; 0
     9e2:	a0 e0       	ldi	r26, 0x00	; 0
     9e4:	b0 e0       	ldi	r27, 0x00	; 0
     9e6:	04 c0       	rjmp	.+8      	; 0x9f0 <__pack_f+0x9c>
     9e8:	88 0f       	add	r24, r24
     9ea:	99 1f       	adc	r25, r25
     9ec:	aa 1f       	adc	r26, r26
     9ee:	bb 1f       	adc	r27, r27
     9f0:	2a 95       	dec	r18
     9f2:	d2 f7       	brpl	.-12     	; 0x9e8 <__pack_f+0x94>
     9f4:	01 97       	sbiw	r24, 0x01	; 1
     9f6:	a1 09       	sbc	r26, r1
     9f8:	b1 09       	sbc	r27, r1
     9fa:	8e 21       	and	r24, r14
     9fc:	9f 21       	and	r25, r15
     9fe:	a0 23       	and	r26, r16
     a00:	b1 23       	and	r27, r17
     a02:	00 97       	sbiw	r24, 0x00	; 0
     a04:	a1 05       	cpc	r26, r1
     a06:	b1 05       	cpc	r27, r1
     a08:	21 f0       	breq	.+8      	; 0xa12 <__pack_f+0xbe>
     a0a:	81 e0       	ldi	r24, 0x01	; 1
     a0c:	90 e0       	ldi	r25, 0x00	; 0
     a0e:	a0 e0       	ldi	r26, 0x00	; 0
     a10:	b0 e0       	ldi	r27, 0x00	; 0
     a12:	9a 01       	movw	r18, r20
     a14:	ab 01       	movw	r20, r22
     a16:	28 2b       	or	r18, r24
     a18:	39 2b       	or	r19, r25
     a1a:	4a 2b       	or	r20, r26
     a1c:	5b 2b       	or	r21, r27
     a1e:	da 01       	movw	r26, r20
     a20:	c9 01       	movw	r24, r18
     a22:	8f 77       	andi	r24, 0x7F	; 127
     a24:	90 70       	andi	r25, 0x00	; 0
     a26:	a0 70       	andi	r26, 0x00	; 0
     a28:	b0 70       	andi	r27, 0x00	; 0
     a2a:	80 34       	cpi	r24, 0x40	; 64
     a2c:	91 05       	cpc	r25, r1
     a2e:	a1 05       	cpc	r26, r1
     a30:	b1 05       	cpc	r27, r1
     a32:	39 f4       	brne	.+14     	; 0xa42 <__pack_f+0xee>
     a34:	27 ff       	sbrs	r18, 7
     a36:	09 c0       	rjmp	.+18     	; 0xa4a <__pack_f+0xf6>
     a38:	20 5c       	subi	r18, 0xC0	; 192
     a3a:	3f 4f       	sbci	r19, 0xFF	; 255
     a3c:	4f 4f       	sbci	r20, 0xFF	; 255
     a3e:	5f 4f       	sbci	r21, 0xFF	; 255
     a40:	04 c0       	rjmp	.+8      	; 0xa4a <__pack_f+0xf6>
     a42:	21 5c       	subi	r18, 0xC1	; 193
     a44:	3f 4f       	sbci	r19, 0xFF	; 255
     a46:	4f 4f       	sbci	r20, 0xFF	; 255
     a48:	5f 4f       	sbci	r21, 0xFF	; 255
     a4a:	e0 e0       	ldi	r30, 0x00	; 0
     a4c:	f0 e0       	ldi	r31, 0x00	; 0
     a4e:	20 30       	cpi	r18, 0x00	; 0
     a50:	a0 e0       	ldi	r26, 0x00	; 0
     a52:	3a 07       	cpc	r19, r26
     a54:	a0 e0       	ldi	r26, 0x00	; 0
     a56:	4a 07       	cpc	r20, r26
     a58:	a0 e4       	ldi	r26, 0x40	; 64
     a5a:	5a 07       	cpc	r21, r26
     a5c:	10 f0       	brcs	.+4      	; 0xa62 <__pack_f+0x10e>
     a5e:	e1 e0       	ldi	r30, 0x01	; 1
     a60:	f0 e0       	ldi	r31, 0x00	; 0
     a62:	79 01       	movw	r14, r18
     a64:	8a 01       	movw	r16, r20
     a66:	27 c0       	rjmp	.+78     	; 0xab6 <__pack_f+0x162>
     a68:	60 38       	cpi	r22, 0x80	; 128
     a6a:	71 05       	cpc	r23, r1
     a6c:	64 f5       	brge	.+88     	; 0xac6 <__pack_f+0x172>
     a6e:	fb 01       	movw	r30, r22
     a70:	e1 58       	subi	r30, 0x81	; 129
     a72:	ff 4f       	sbci	r31, 0xFF	; 255
     a74:	d8 01       	movw	r26, r16
     a76:	c7 01       	movw	r24, r14
     a78:	8f 77       	andi	r24, 0x7F	; 127
     a7a:	90 70       	andi	r25, 0x00	; 0
     a7c:	a0 70       	andi	r26, 0x00	; 0
     a7e:	b0 70       	andi	r27, 0x00	; 0
     a80:	80 34       	cpi	r24, 0x40	; 64
     a82:	91 05       	cpc	r25, r1
     a84:	a1 05       	cpc	r26, r1
     a86:	b1 05       	cpc	r27, r1
     a88:	39 f4       	brne	.+14     	; 0xa98 <__pack_f+0x144>
     a8a:	e7 fe       	sbrs	r14, 7
     a8c:	0d c0       	rjmp	.+26     	; 0xaa8 <__pack_f+0x154>
     a8e:	80 e4       	ldi	r24, 0x40	; 64
     a90:	90 e0       	ldi	r25, 0x00	; 0
     a92:	a0 e0       	ldi	r26, 0x00	; 0
     a94:	b0 e0       	ldi	r27, 0x00	; 0
     a96:	04 c0       	rjmp	.+8      	; 0xaa0 <__pack_f+0x14c>
     a98:	8f e3       	ldi	r24, 0x3F	; 63
     a9a:	90 e0       	ldi	r25, 0x00	; 0
     a9c:	a0 e0       	ldi	r26, 0x00	; 0
     a9e:	b0 e0       	ldi	r27, 0x00	; 0
     aa0:	e8 0e       	add	r14, r24
     aa2:	f9 1e       	adc	r15, r25
     aa4:	0a 1f       	adc	r16, r26
     aa6:	1b 1f       	adc	r17, r27
     aa8:	17 ff       	sbrs	r17, 7
     aaa:	05 c0       	rjmp	.+10     	; 0xab6 <__pack_f+0x162>
     aac:	16 95       	lsr	r17
     aae:	07 95       	ror	r16
     ab0:	f7 94       	ror	r15
     ab2:	e7 94       	ror	r14
     ab4:	31 96       	adiw	r30, 0x01	; 1
     ab6:	87 e0       	ldi	r24, 0x07	; 7
     ab8:	16 95       	lsr	r17
     aba:	07 95       	ror	r16
     abc:	f7 94       	ror	r15
     abe:	e7 94       	ror	r14
     ac0:	8a 95       	dec	r24
     ac2:	d1 f7       	brne	.-12     	; 0xab8 <__pack_f+0x164>
     ac4:	05 c0       	rjmp	.+10     	; 0xad0 <__pack_f+0x17c>
     ac6:	ee 24       	eor	r14, r14
     ac8:	ff 24       	eor	r15, r15
     aca:	87 01       	movw	r16, r14
     acc:	ef ef       	ldi	r30, 0xFF	; 255
     ace:	f0 e0       	ldi	r31, 0x00	; 0
     ad0:	6e 2f       	mov	r22, r30
     ad2:	67 95       	ror	r22
     ad4:	66 27       	eor	r22, r22
     ad6:	67 95       	ror	r22
     ad8:	90 2f       	mov	r25, r16
     ada:	9f 77       	andi	r25, 0x7F	; 127
     adc:	d7 94       	ror	r13
     ade:	dd 24       	eor	r13, r13
     ae0:	d7 94       	ror	r13
     ae2:	8e 2f       	mov	r24, r30
     ae4:	86 95       	lsr	r24
     ae6:	49 2f       	mov	r20, r25
     ae8:	46 2b       	or	r20, r22
     aea:	58 2f       	mov	r21, r24
     aec:	5d 29       	or	r21, r13
     aee:	b7 01       	movw	r22, r14
     af0:	ca 01       	movw	r24, r20
     af2:	1f 91       	pop	r17
     af4:	0f 91       	pop	r16
     af6:	ff 90       	pop	r15
     af8:	ef 90       	pop	r14
     afa:	df 90       	pop	r13
     afc:	08 95       	ret

00000afe <__unpack_f>:
     afe:	fc 01       	movw	r30, r24
     b00:	db 01       	movw	r26, r22
     b02:	40 81       	ld	r20, Z
     b04:	51 81       	ldd	r21, Z+1	; 0x01
     b06:	22 81       	ldd	r18, Z+2	; 0x02
     b08:	62 2f       	mov	r22, r18
     b0a:	6f 77       	andi	r22, 0x7F	; 127
     b0c:	70 e0       	ldi	r23, 0x00	; 0
     b0e:	22 1f       	adc	r18, r18
     b10:	22 27       	eor	r18, r18
     b12:	22 1f       	adc	r18, r18
     b14:	93 81       	ldd	r25, Z+3	; 0x03
     b16:	89 2f       	mov	r24, r25
     b18:	88 0f       	add	r24, r24
     b1a:	82 2b       	or	r24, r18
     b1c:	28 2f       	mov	r18, r24
     b1e:	30 e0       	ldi	r19, 0x00	; 0
     b20:	99 1f       	adc	r25, r25
     b22:	99 27       	eor	r25, r25
     b24:	99 1f       	adc	r25, r25
     b26:	11 96       	adiw	r26, 0x01	; 1
     b28:	9c 93       	st	X, r25
     b2a:	11 97       	sbiw	r26, 0x01	; 1
     b2c:	21 15       	cp	r18, r1
     b2e:	31 05       	cpc	r19, r1
     b30:	a9 f5       	brne	.+106    	; 0xb9c <__unpack_f+0x9e>
     b32:	41 15       	cp	r20, r1
     b34:	51 05       	cpc	r21, r1
     b36:	61 05       	cpc	r22, r1
     b38:	71 05       	cpc	r23, r1
     b3a:	11 f4       	brne	.+4      	; 0xb40 <__unpack_f+0x42>
     b3c:	82 e0       	ldi	r24, 0x02	; 2
     b3e:	37 c0       	rjmp	.+110    	; 0xbae <__unpack_f+0xb0>
     b40:	82 e8       	ldi	r24, 0x82	; 130
     b42:	9f ef       	ldi	r25, 0xFF	; 255
     b44:	13 96       	adiw	r26, 0x03	; 3
     b46:	9c 93       	st	X, r25
     b48:	8e 93       	st	-X, r24
     b4a:	12 97       	sbiw	r26, 0x02	; 2
     b4c:	9a 01       	movw	r18, r20
     b4e:	ab 01       	movw	r20, r22
     b50:	67 e0       	ldi	r22, 0x07	; 7
     b52:	22 0f       	add	r18, r18
     b54:	33 1f       	adc	r19, r19
     b56:	44 1f       	adc	r20, r20
     b58:	55 1f       	adc	r21, r21
     b5a:	6a 95       	dec	r22
     b5c:	d1 f7       	brne	.-12     	; 0xb52 <__unpack_f+0x54>
     b5e:	83 e0       	ldi	r24, 0x03	; 3
     b60:	8c 93       	st	X, r24
     b62:	0d c0       	rjmp	.+26     	; 0xb7e <__unpack_f+0x80>
     b64:	22 0f       	add	r18, r18
     b66:	33 1f       	adc	r19, r19
     b68:	44 1f       	adc	r20, r20
     b6a:	55 1f       	adc	r21, r21
     b6c:	12 96       	adiw	r26, 0x02	; 2
     b6e:	8d 91       	ld	r24, X+
     b70:	9c 91       	ld	r25, X
     b72:	13 97       	sbiw	r26, 0x03	; 3
     b74:	01 97       	sbiw	r24, 0x01	; 1
     b76:	13 96       	adiw	r26, 0x03	; 3
     b78:	9c 93       	st	X, r25
     b7a:	8e 93       	st	-X, r24
     b7c:	12 97       	sbiw	r26, 0x02	; 2
     b7e:	20 30       	cpi	r18, 0x00	; 0
     b80:	80 e0       	ldi	r24, 0x00	; 0
     b82:	38 07       	cpc	r19, r24
     b84:	80 e0       	ldi	r24, 0x00	; 0
     b86:	48 07       	cpc	r20, r24
     b88:	80 e4       	ldi	r24, 0x40	; 64
     b8a:	58 07       	cpc	r21, r24
     b8c:	58 f3       	brcs	.-42     	; 0xb64 <__unpack_f+0x66>
     b8e:	14 96       	adiw	r26, 0x04	; 4
     b90:	2d 93       	st	X+, r18
     b92:	3d 93       	st	X+, r19
     b94:	4d 93       	st	X+, r20
     b96:	5c 93       	st	X, r21
     b98:	17 97       	sbiw	r26, 0x07	; 7
     b9a:	08 95       	ret
     b9c:	2f 3f       	cpi	r18, 0xFF	; 255
     b9e:	31 05       	cpc	r19, r1
     ba0:	79 f4       	brne	.+30     	; 0xbc0 <__unpack_f+0xc2>
     ba2:	41 15       	cp	r20, r1
     ba4:	51 05       	cpc	r21, r1
     ba6:	61 05       	cpc	r22, r1
     ba8:	71 05       	cpc	r23, r1
     baa:	19 f4       	brne	.+6      	; 0xbb2 <__unpack_f+0xb4>
     bac:	84 e0       	ldi	r24, 0x04	; 4
     bae:	8c 93       	st	X, r24
     bb0:	08 95       	ret
     bb2:	64 ff       	sbrs	r22, 4
     bb4:	03 c0       	rjmp	.+6      	; 0xbbc <__unpack_f+0xbe>
     bb6:	81 e0       	ldi	r24, 0x01	; 1
     bb8:	8c 93       	st	X, r24
     bba:	12 c0       	rjmp	.+36     	; 0xbe0 <__unpack_f+0xe2>
     bbc:	1c 92       	st	X, r1
     bbe:	10 c0       	rjmp	.+32     	; 0xbe0 <__unpack_f+0xe2>
     bc0:	2f 57       	subi	r18, 0x7F	; 127
     bc2:	30 40       	sbci	r19, 0x00	; 0
     bc4:	13 96       	adiw	r26, 0x03	; 3
     bc6:	3c 93       	st	X, r19
     bc8:	2e 93       	st	-X, r18
     bca:	12 97       	sbiw	r26, 0x02	; 2
     bcc:	83 e0       	ldi	r24, 0x03	; 3
     bce:	8c 93       	st	X, r24
     bd0:	87 e0       	ldi	r24, 0x07	; 7
     bd2:	44 0f       	add	r20, r20
     bd4:	55 1f       	adc	r21, r21
     bd6:	66 1f       	adc	r22, r22
     bd8:	77 1f       	adc	r23, r23
     bda:	8a 95       	dec	r24
     bdc:	d1 f7       	brne	.-12     	; 0xbd2 <__unpack_f+0xd4>
     bde:	70 64       	ori	r23, 0x40	; 64
     be0:	14 96       	adiw	r26, 0x04	; 4
     be2:	4d 93       	st	X+, r20
     be4:	5d 93       	st	X+, r21
     be6:	6d 93       	st	X+, r22
     be8:	7c 93       	st	X, r23
     bea:	17 97       	sbiw	r26, 0x07	; 7
     bec:	08 95       	ret

00000bee <__fpcmp_parts_f>:
     bee:	1f 93       	push	r17
     bf0:	dc 01       	movw	r26, r24
     bf2:	fb 01       	movw	r30, r22
     bf4:	9c 91       	ld	r25, X
     bf6:	92 30       	cpi	r25, 0x02	; 2
     bf8:	08 f4       	brcc	.+2      	; 0xbfc <__fpcmp_parts_f+0xe>
     bfa:	47 c0       	rjmp	.+142    	; 0xc8a <__fpcmp_parts_f+0x9c>
     bfc:	80 81       	ld	r24, Z
     bfe:	82 30       	cpi	r24, 0x02	; 2
     c00:	08 f4       	brcc	.+2      	; 0xc04 <__fpcmp_parts_f+0x16>
     c02:	43 c0       	rjmp	.+134    	; 0xc8a <__fpcmp_parts_f+0x9c>
     c04:	94 30       	cpi	r25, 0x04	; 4
     c06:	51 f4       	brne	.+20     	; 0xc1c <__fpcmp_parts_f+0x2e>
     c08:	11 96       	adiw	r26, 0x01	; 1
     c0a:	1c 91       	ld	r17, X
     c0c:	84 30       	cpi	r24, 0x04	; 4
     c0e:	99 f5       	brne	.+102    	; 0xc76 <__fpcmp_parts_f+0x88>
     c10:	81 81       	ldd	r24, Z+1	; 0x01
     c12:	68 2f       	mov	r22, r24
     c14:	70 e0       	ldi	r23, 0x00	; 0
     c16:	61 1b       	sub	r22, r17
     c18:	71 09       	sbc	r23, r1
     c1a:	3f c0       	rjmp	.+126    	; 0xc9a <__fpcmp_parts_f+0xac>
     c1c:	84 30       	cpi	r24, 0x04	; 4
     c1e:	21 f0       	breq	.+8      	; 0xc28 <__fpcmp_parts_f+0x3a>
     c20:	92 30       	cpi	r25, 0x02	; 2
     c22:	31 f4       	brne	.+12     	; 0xc30 <__fpcmp_parts_f+0x42>
     c24:	82 30       	cpi	r24, 0x02	; 2
     c26:	b9 f1       	breq	.+110    	; 0xc96 <__fpcmp_parts_f+0xa8>
     c28:	81 81       	ldd	r24, Z+1	; 0x01
     c2a:	88 23       	and	r24, r24
     c2c:	89 f1       	breq	.+98     	; 0xc90 <__fpcmp_parts_f+0xa2>
     c2e:	2d c0       	rjmp	.+90     	; 0xc8a <__fpcmp_parts_f+0x9c>
     c30:	11 96       	adiw	r26, 0x01	; 1
     c32:	1c 91       	ld	r17, X
     c34:	11 97       	sbiw	r26, 0x01	; 1
     c36:	82 30       	cpi	r24, 0x02	; 2
     c38:	f1 f0       	breq	.+60     	; 0xc76 <__fpcmp_parts_f+0x88>
     c3a:	81 81       	ldd	r24, Z+1	; 0x01
     c3c:	18 17       	cp	r17, r24
     c3e:	d9 f4       	brne	.+54     	; 0xc76 <__fpcmp_parts_f+0x88>
     c40:	12 96       	adiw	r26, 0x02	; 2
     c42:	2d 91       	ld	r18, X+
     c44:	3c 91       	ld	r19, X
     c46:	13 97       	sbiw	r26, 0x03	; 3
     c48:	82 81       	ldd	r24, Z+2	; 0x02
     c4a:	93 81       	ldd	r25, Z+3	; 0x03
     c4c:	82 17       	cp	r24, r18
     c4e:	93 07       	cpc	r25, r19
     c50:	94 f0       	brlt	.+36     	; 0xc76 <__fpcmp_parts_f+0x88>
     c52:	28 17       	cp	r18, r24
     c54:	39 07       	cpc	r19, r25
     c56:	bc f0       	brlt	.+46     	; 0xc86 <__fpcmp_parts_f+0x98>
     c58:	14 96       	adiw	r26, 0x04	; 4
     c5a:	8d 91       	ld	r24, X+
     c5c:	9d 91       	ld	r25, X+
     c5e:	0d 90       	ld	r0, X+
     c60:	bc 91       	ld	r27, X
     c62:	a0 2d       	mov	r26, r0
     c64:	24 81       	ldd	r18, Z+4	; 0x04
     c66:	35 81       	ldd	r19, Z+5	; 0x05
     c68:	46 81       	ldd	r20, Z+6	; 0x06
     c6a:	57 81       	ldd	r21, Z+7	; 0x07
     c6c:	28 17       	cp	r18, r24
     c6e:	39 07       	cpc	r19, r25
     c70:	4a 07       	cpc	r20, r26
     c72:	5b 07       	cpc	r21, r27
     c74:	18 f4       	brcc	.+6      	; 0xc7c <__fpcmp_parts_f+0x8e>
     c76:	11 23       	and	r17, r17
     c78:	41 f0       	breq	.+16     	; 0xc8a <__fpcmp_parts_f+0x9c>
     c7a:	0a c0       	rjmp	.+20     	; 0xc90 <__fpcmp_parts_f+0xa2>
     c7c:	82 17       	cp	r24, r18
     c7e:	93 07       	cpc	r25, r19
     c80:	a4 07       	cpc	r26, r20
     c82:	b5 07       	cpc	r27, r21
     c84:	40 f4       	brcc	.+16     	; 0xc96 <__fpcmp_parts_f+0xa8>
     c86:	11 23       	and	r17, r17
     c88:	19 f0       	breq	.+6      	; 0xc90 <__fpcmp_parts_f+0xa2>
     c8a:	61 e0       	ldi	r22, 0x01	; 1
     c8c:	70 e0       	ldi	r23, 0x00	; 0
     c8e:	05 c0       	rjmp	.+10     	; 0xc9a <__fpcmp_parts_f+0xac>
     c90:	6f ef       	ldi	r22, 0xFF	; 255
     c92:	7f ef       	ldi	r23, 0xFF	; 255
     c94:	02 c0       	rjmp	.+4      	; 0xc9a <__fpcmp_parts_f+0xac>
     c96:	60 e0       	ldi	r22, 0x00	; 0
     c98:	70 e0       	ldi	r23, 0x00	; 0
     c9a:	cb 01       	movw	r24, r22
     c9c:	1f 91       	pop	r17
     c9e:	08 95       	ret

00000ca0 <SW_Def>:
/*********************************************************************************/
/*********************************************************************************/
#include "SW_interface.h"

void SW_Def(SW_t *SW)
{
     ca0:	df 93       	push	r29
     ca2:	cf 93       	push	r28
     ca4:	00 d0       	rcall	.+0      	; 0xca6 <SW_Def+0x6>
     ca6:	00 d0       	rcall	.+0      	; 0xca8 <SW_Def+0x8>
     ca8:	cd b7       	in	r28, 0x3d	; 61
     caa:	de b7       	in	r29, 0x3e	; 62
     cac:	9a 83       	std	Y+2, r25	; 0x02
     cae:	89 83       	std	Y+1, r24	; 0x01
	switch(SW ->PUL_t)
     cb0:	e9 81       	ldd	r30, Y+1	; 0x01
     cb2:	fa 81       	ldd	r31, Y+2	; 0x02
     cb4:	82 81       	ldd	r24, Z+2	; 0x02
     cb6:	28 2f       	mov	r18, r24
     cb8:	30 e0       	ldi	r19, 0x00	; 0
     cba:	3c 83       	std	Y+4, r19	; 0x04
     cbc:	2b 83       	std	Y+3, r18	; 0x03
     cbe:	8b 81       	ldd	r24, Y+3	; 0x03
     cc0:	9c 81       	ldd	r25, Y+4	; 0x04
     cc2:	00 97       	sbiw	r24, 0x00	; 0
     cc4:	d1 f0       	breq	.+52     	; 0xcfa <SW_Def+0x5a>
     cc6:	2b 81       	ldd	r18, Y+3	; 0x03
     cc8:	3c 81       	ldd	r19, Y+4	; 0x04
     cca:	21 30       	cpi	r18, 0x01	; 1
     ccc:	31 05       	cpc	r19, r1
     cce:	f9 f4       	brne	.+62     	; 0xd0e <SW_Def+0x6e>
	{
	case PULL_UP :
		DIO_u8SetPinDirection(SW->PORT,SW->PIN,INPUT);
     cd0:	e9 81       	ldd	r30, Y+1	; 0x01
     cd2:	fa 81       	ldd	r31, Y+2	; 0x02
     cd4:	80 81       	ld	r24, Z
     cd6:	e9 81       	ldd	r30, Y+1	; 0x01
     cd8:	fa 81       	ldd	r31, Y+2	; 0x02
     cda:	91 81       	ldd	r25, Z+1	; 0x01
     cdc:	69 2f       	mov	r22, r25
     cde:	40 e0       	ldi	r20, 0x00	; 0
     ce0:	0e 94 90 18 	call	0x3120	; 0x3120 <DIO_u8SetPinDirection>
		DIO_u8SetPinValue(SW->PORT,SW->PIN,HIGH);
     ce4:	e9 81       	ldd	r30, Y+1	; 0x01
     ce6:	fa 81       	ldd	r31, Y+2	; 0x02
     ce8:	80 81       	ld	r24, Z
     cea:	e9 81       	ldd	r30, Y+1	; 0x01
     cec:	fa 81       	ldd	r31, Y+2	; 0x02
     cee:	91 81       	ldd	r25, Z+1	; 0x01
     cf0:	69 2f       	mov	r22, r25
     cf2:	41 e0       	ldi	r20, 0x01	; 1
     cf4:	0e 94 eb 19 	call	0x33d6	; 0x33d6 <DIO_u8SetPinValue>
     cf8:	0a c0       	rjmp	.+20     	; 0xd0e <SW_Def+0x6e>
		break;
	case PULL_DOWN :
		DIO_u8SetPinDirection(SW->PORT,SW->PIN,INPUT);
     cfa:	e9 81       	ldd	r30, Y+1	; 0x01
     cfc:	fa 81       	ldd	r31, Y+2	; 0x02
     cfe:	80 81       	ld	r24, Z
     d00:	e9 81       	ldd	r30, Y+1	; 0x01
     d02:	fa 81       	ldd	r31, Y+2	; 0x02
     d04:	91 81       	ldd	r25, Z+1	; 0x01
     d06:	69 2f       	mov	r22, r25
     d08:	40 e0       	ldi	r20, 0x00	; 0
     d0a:	0e 94 90 18 	call	0x3120	; 0x3120 <DIO_u8SetPinDirection>
		break;
	default:
		break;
	}
}
     d0e:	0f 90       	pop	r0
     d10:	0f 90       	pop	r0
     d12:	0f 90       	pop	r0
     d14:	0f 90       	pop	r0
     d16:	cf 91       	pop	r28
     d18:	df 91       	pop	r29
     d1a:	08 95       	ret

00000d1c <SW_GetState>:
u8 SW_GetState(SW_t* SW)
{
     d1c:	df 93       	push	r29
     d1e:	cf 93       	push	r28
     d20:	cd b7       	in	r28, 0x3d	; 61
     d22:	de b7       	in	r29, 0x3e	; 62
     d24:	27 97       	sbiw	r28, 0x07	; 7
     d26:	0f b6       	in	r0, 0x3f	; 63
     d28:	f8 94       	cli
     d2a:	de bf       	out	0x3e, r29	; 62
     d2c:	0f be       	out	0x3f, r0	; 63
     d2e:	cd bf       	out	0x3d, r28	; 61
     d30:	9b 83       	std	Y+3, r25	; 0x03
     d32:	8a 83       	std	Y+2, r24	; 0x02
	u8 value;
	switch (SW ->PUL_t)
     d34:	ea 81       	ldd	r30, Y+2	; 0x02
     d36:	fb 81       	ldd	r31, Y+3	; 0x03
     d38:	82 81       	ldd	r24, Z+2	; 0x02
     d3a:	28 2f       	mov	r18, r24
     d3c:	30 e0       	ldi	r19, 0x00	; 0
     d3e:	3e 83       	std	Y+6, r19	; 0x06
     d40:	2d 83       	std	Y+5, r18	; 0x05
     d42:	8d 81       	ldd	r24, Y+5	; 0x05
     d44:	9e 81       	ldd	r25, Y+6	; 0x06
     d46:	00 97       	sbiw	r24, 0x00	; 0
     d48:	a9 f0       	breq	.+42     	; 0xd74 <SW_GetState+0x58>
     d4a:	2d 81       	ldd	r18, Y+5	; 0x05
     d4c:	3e 81       	ldd	r19, Y+6	; 0x06
     d4e:	21 30       	cpi	r18, 0x01	; 1
     d50:	31 05       	cpc	r19, r1
     d52:	01 f5       	brne	.+64     	; 0xd94 <SW_GetState+0x78>
	{
	case PULL_UP :
		DIO_u8GetPinValue(SW->PORT,SW->PIN,&value);
     d54:	ea 81       	ldd	r30, Y+2	; 0x02
     d56:	fb 81       	ldd	r31, Y+3	; 0x03
     d58:	80 81       	ld	r24, Z
     d5a:	ea 81       	ldd	r30, Y+2	; 0x02
     d5c:	fb 81       	ldd	r31, Y+3	; 0x03
     d5e:	91 81       	ldd	r25, Z+1	; 0x01
     d60:	69 2f       	mov	r22, r25
     d62:	9e 01       	movw	r18, r28
     d64:	2f 5f       	subi	r18, 0xFF	; 255
     d66:	3f 4f       	sbci	r19, 0xFF	; 255
     d68:	a9 01       	movw	r20, r18
     d6a:	0e 94 46 1b 	call	0x368c	; 0x368c <DIO_u8GetPinValue>
        return(value);
     d6e:	39 81       	ldd	r19, Y+1	; 0x01
     d70:	3c 83       	std	Y+4, r19	; 0x04
     d72:	11 c0       	rjmp	.+34     	; 0xd96 <SW_GetState+0x7a>
		break;

	case PULL_DOWN :
		DIO_u8GetPinValue(SW->PORT,SW->PIN,&value);
     d74:	ea 81       	ldd	r30, Y+2	; 0x02
     d76:	fb 81       	ldd	r31, Y+3	; 0x03
     d78:	80 81       	ld	r24, Z
     d7a:	ea 81       	ldd	r30, Y+2	; 0x02
     d7c:	fb 81       	ldd	r31, Y+3	; 0x03
     d7e:	91 81       	ldd	r25, Z+1	; 0x01
     d80:	69 2f       	mov	r22, r25
     d82:	9e 01       	movw	r18, r28
     d84:	2f 5f       	subi	r18, 0xFF	; 255
     d86:	3f 4f       	sbci	r19, 0xFF	; 255
     d88:	a9 01       	movw	r20, r18
     d8a:	0e 94 46 1b 	call	0x368c	; 0x368c <DIO_u8GetPinValue>
		return(value);
     d8e:	89 81       	ldd	r24, Y+1	; 0x01
     d90:	8c 83       	std	Y+4, r24	; 0x04
     d92:	01 c0       	rjmp	.+2      	; 0xd96 <SW_GetState+0x7a>
     d94:	02 c0       	rjmp	.+4      	; 0xd9a <SW_GetState+0x7e>
		break;
	default :
		break;
	}
}
     d96:	9c 81       	ldd	r25, Y+4	; 0x04
     d98:	9f 83       	std	Y+7, r25	; 0x07
     d9a:	8f 81       	ldd	r24, Y+7	; 0x07
     d9c:	27 96       	adiw	r28, 0x07	; 7
     d9e:	0f b6       	in	r0, 0x3f	; 63
     da0:	f8 94       	cli
     da2:	de bf       	out	0x3e, r29	; 62
     da4:	0f be       	out	0x3f, r0	; 63
     da6:	cd bf       	out	0x3d, r28	; 61
     da8:	cf 91       	pop	r28
     daa:	df 91       	pop	r29
     dac:	08 95       	ret

00000dae <SSD_setNumber>:
#include "SS_interface.h"
u8 SSD_setNumber(u8 Number , SSD_t* SSD)
{
     dae:	df 93       	push	r29
     db0:	cf 93       	push	r28
     db2:	00 d0       	rcall	.+0      	; 0xdb4 <SSD_setNumber+0x6>
     db4:	00 d0       	rcall	.+0      	; 0xdb6 <SSD_setNumber+0x8>
     db6:	00 d0       	rcall	.+0      	; 0xdb8 <SSD_setNumber+0xa>
     db8:	cd b7       	in	r28, 0x3d	; 61
     dba:	de b7       	in	r29, 0x3e	; 62
     dbc:	89 83       	std	Y+1, r24	; 0x01
     dbe:	7b 83       	std	Y+3, r23	; 0x03
     dc0:	6a 83       	std	Y+2, r22	; 0x02
	DIO_u8SetPortDirection(SSD->PORT,0xff);
     dc2:	ea 81       	ldd	r30, Y+2	; 0x02
     dc4:	fb 81       	ldd	r31, Y+3	; 0x03
     dc6:	81 81       	ldd	r24, Z+1	; 0x01
     dc8:	6f ef       	ldi	r22, 0xFF	; 255
     dca:	0e 94 a2 19 	call	0x3344	; 0x3344 <DIO_u8SetPortDirection>
	DIO_u8SetPortValue(SSD->PORT,SSD->COM_type ? segmentA[Number] : ~segmentA[Number]);
     dce:	ea 81       	ldd	r30, Y+2	; 0x02
     dd0:	fb 81       	ldd	r31, Y+3	; 0x03
     dd2:	81 81       	ldd	r24, Z+1	; 0x01
     dd4:	8d 83       	std	Y+5, r24	; 0x05
     dd6:	ea 81       	ldd	r30, Y+2	; 0x02
     dd8:	fb 81       	ldd	r31, Y+3	; 0x03
     dda:	80 81       	ld	r24, Z
     ddc:	88 23       	and	r24, r24
     dde:	49 f0       	breq	.+18     	; 0xdf2 <SSD_setNumber+0x44>
     de0:	89 81       	ldd	r24, Y+1	; 0x01
     de2:	88 2f       	mov	r24, r24
     de4:	90 e0       	ldi	r25, 0x00	; 0
     de6:	fc 01       	movw	r30, r24
     de8:	e8 59       	subi	r30, 0x98	; 152
     dea:	fe 4f       	sbci	r31, 0xFE	; 254
     dec:	90 81       	ld	r25, Z
     dee:	9c 83       	std	Y+4, r25	; 0x04
     df0:	0a c0       	rjmp	.+20     	; 0xe06 <SSD_setNumber+0x58>
     df2:	89 81       	ldd	r24, Y+1	; 0x01
     df4:	88 2f       	mov	r24, r24
     df6:	90 e0       	ldi	r25, 0x00	; 0
     df8:	fc 01       	movw	r30, r24
     dfa:	e8 59       	subi	r30, 0x98	; 152
     dfc:	fe 4f       	sbci	r31, 0xFE	; 254
     dfe:	80 81       	ld	r24, Z
     e00:	98 2f       	mov	r25, r24
     e02:	90 95       	com	r25
     e04:	9c 83       	std	Y+4, r25	; 0x04
     e06:	8d 81       	ldd	r24, Y+5	; 0x05
     e08:	6c 81       	ldd	r22, Y+4	; 0x04
     e0a:	0e 94 fd 1a 	call	0x35fa	; 0x35fa <DIO_u8SetPortValue>
	DIO_u8SetPinDirection(SSD->EnablePort,SSD->EnablePin,OUTPUT);
     e0e:	ea 81       	ldd	r30, Y+2	; 0x02
     e10:	fb 81       	ldd	r31, Y+3	; 0x03
     e12:	82 81       	ldd	r24, Z+2	; 0x02
     e14:	ea 81       	ldd	r30, Y+2	; 0x02
     e16:	fb 81       	ldd	r31, Y+3	; 0x03
     e18:	93 81       	ldd	r25, Z+3	; 0x03
     e1a:	69 2f       	mov	r22, r25
     e1c:	41 e0       	ldi	r20, 0x01	; 1
     e1e:	0e 94 90 18 	call	0x3120	; 0x3120 <DIO_u8SetPinDirection>
}
     e22:	26 96       	adiw	r28, 0x06	; 6
     e24:	0f b6       	in	r0, 0x3f	; 63
     e26:	f8 94       	cli
     e28:	de bf       	out	0x3e, r29	; 62
     e2a:	0f be       	out	0x3f, r0	; 63
     e2c:	cd bf       	out	0x3d, r28	; 61
     e2e:	cf 91       	pop	r28
     e30:	df 91       	pop	r29
     e32:	08 95       	ret

00000e34 <SSD_Enable>:

u8 SSD_Enable(SSD_t*SSD)
{
     e34:	df 93       	push	r29
     e36:	cf 93       	push	r28
     e38:	00 d0       	rcall	.+0      	; 0xe3a <SSD_Enable+0x6>
     e3a:	00 d0       	rcall	.+0      	; 0xe3c <SSD_Enable+0x8>
     e3c:	0f 92       	push	r0
     e3e:	cd b7       	in	r28, 0x3d	; 61
     e40:	de b7       	in	r29, 0x3e	; 62
     e42:	9a 83       	std	Y+2, r25	; 0x02
     e44:	89 83       	std	Y+1, r24	; 0x01
	switch(SSD -> COM_type)
     e46:	e9 81       	ldd	r30, Y+1	; 0x01
     e48:	fa 81       	ldd	r31, Y+2	; 0x02
     e4a:	80 81       	ld	r24, Z
     e4c:	28 2f       	mov	r18, r24
     e4e:	30 e0       	ldi	r19, 0x00	; 0
     e50:	3c 83       	std	Y+4, r19	; 0x04
     e52:	2b 83       	std	Y+3, r18	; 0x03
     e54:	8b 81       	ldd	r24, Y+3	; 0x03
     e56:	9c 81       	ldd	r25, Y+4	; 0x04
     e58:	00 97       	sbiw	r24, 0x00	; 0
     e5a:	31 f0       	breq	.+12     	; 0xe68 <SSD_Enable+0x34>
     e5c:	2b 81       	ldd	r18, Y+3	; 0x03
     e5e:	3c 81       	ldd	r19, Y+4	; 0x04
     e60:	21 30       	cpi	r18, 0x01	; 1
     e62:	31 05       	cpc	r19, r1
     e64:	61 f0       	breq	.+24     	; 0xe7e <SSD_Enable+0x4a>
     e66:	15 c0       	rjmp	.+42     	; 0xe92 <SSD_Enable+0x5e>
	{
	case ANODE : DIO_u8SetPinValue(SSD->EnablePort,SSD->EnablePin,1) ;break;
     e68:	e9 81       	ldd	r30, Y+1	; 0x01
     e6a:	fa 81       	ldd	r31, Y+2	; 0x02
     e6c:	82 81       	ldd	r24, Z+2	; 0x02
     e6e:	e9 81       	ldd	r30, Y+1	; 0x01
     e70:	fa 81       	ldd	r31, Y+2	; 0x02
     e72:	93 81       	ldd	r25, Z+3	; 0x03
     e74:	69 2f       	mov	r22, r25
     e76:	41 e0       	ldi	r20, 0x01	; 1
     e78:	0e 94 eb 19 	call	0x33d6	; 0x33d6 <DIO_u8SetPinValue>
     e7c:	0a c0       	rjmp	.+20     	; 0xe92 <SSD_Enable+0x5e>
	case CATHODE :DIO_u8SetPinValue(SSD->EnablePort,SSD->EnablePin,0); break;
     e7e:	e9 81       	ldd	r30, Y+1	; 0x01
     e80:	fa 81       	ldd	r31, Y+2	; 0x02
     e82:	82 81       	ldd	r24, Z+2	; 0x02
     e84:	e9 81       	ldd	r30, Y+1	; 0x01
     e86:	fa 81       	ldd	r31, Y+2	; 0x02
     e88:	93 81       	ldd	r25, Z+3	; 0x03
     e8a:	69 2f       	mov	r22, r25
     e8c:	40 e0       	ldi	r20, 0x00	; 0
     e8e:	0e 94 eb 19 	call	0x33d6	; 0x33d6 <DIO_u8SetPinValue>
	default:break;
	}
}
     e92:	0f 90       	pop	r0
     e94:	0f 90       	pop	r0
     e96:	0f 90       	pop	r0
     e98:	0f 90       	pop	r0
     e9a:	0f 90       	pop	r0
     e9c:	cf 91       	pop	r28
     e9e:	df 91       	pop	r29
     ea0:	08 95       	ret

00000ea2 <SSD_Disable>:
u8 SSD_Disable(SSD_t*SSD)
{
     ea2:	df 93       	push	r29
     ea4:	cf 93       	push	r28
     ea6:	00 d0       	rcall	.+0      	; 0xea8 <SSD_Disable+0x6>
     ea8:	00 d0       	rcall	.+0      	; 0xeaa <SSD_Disable+0x8>
     eaa:	0f 92       	push	r0
     eac:	cd b7       	in	r28, 0x3d	; 61
     eae:	de b7       	in	r29, 0x3e	; 62
     eb0:	9a 83       	std	Y+2, r25	; 0x02
     eb2:	89 83       	std	Y+1, r24	; 0x01
	switch(SSD -> COM_type)
     eb4:	e9 81       	ldd	r30, Y+1	; 0x01
     eb6:	fa 81       	ldd	r31, Y+2	; 0x02
     eb8:	80 81       	ld	r24, Z
     eba:	28 2f       	mov	r18, r24
     ebc:	30 e0       	ldi	r19, 0x00	; 0
     ebe:	3c 83       	std	Y+4, r19	; 0x04
     ec0:	2b 83       	std	Y+3, r18	; 0x03
     ec2:	8b 81       	ldd	r24, Y+3	; 0x03
     ec4:	9c 81       	ldd	r25, Y+4	; 0x04
     ec6:	00 97       	sbiw	r24, 0x00	; 0
     ec8:	31 f0       	breq	.+12     	; 0xed6 <SSD_Disable+0x34>
     eca:	2b 81       	ldd	r18, Y+3	; 0x03
     ecc:	3c 81       	ldd	r19, Y+4	; 0x04
     ece:	21 30       	cpi	r18, 0x01	; 1
     ed0:	31 05       	cpc	r19, r1
     ed2:	61 f0       	breq	.+24     	; 0xeec <SSD_Disable+0x4a>
     ed4:	15 c0       	rjmp	.+42     	; 0xf00 <SSD_Disable+0x5e>
	{
	case ANODE : DIO_u8SetPinValue(SSD->EnablePort,SSD->EnablePin,0);break;
     ed6:	e9 81       	ldd	r30, Y+1	; 0x01
     ed8:	fa 81       	ldd	r31, Y+2	; 0x02
     eda:	82 81       	ldd	r24, Z+2	; 0x02
     edc:	e9 81       	ldd	r30, Y+1	; 0x01
     ede:	fa 81       	ldd	r31, Y+2	; 0x02
     ee0:	93 81       	ldd	r25, Z+3	; 0x03
     ee2:	69 2f       	mov	r22, r25
     ee4:	40 e0       	ldi	r20, 0x00	; 0
     ee6:	0e 94 eb 19 	call	0x33d6	; 0x33d6 <DIO_u8SetPinValue>
     eea:	0a c0       	rjmp	.+20     	; 0xf00 <SSD_Disable+0x5e>
	case CATHODE :DIO_u8SetPinValue(SSD->EnablePort,SSD->EnablePin,1);break;
     eec:	e9 81       	ldd	r30, Y+1	; 0x01
     eee:	fa 81       	ldd	r31, Y+2	; 0x02
     ef0:	82 81       	ldd	r24, Z+2	; 0x02
     ef2:	e9 81       	ldd	r30, Y+1	; 0x01
     ef4:	fa 81       	ldd	r31, Y+2	; 0x02
     ef6:	93 81       	ldd	r25, Z+3	; 0x03
     ef8:	69 2f       	mov	r22, r25
     efa:	41 e0       	ldi	r20, 0x01	; 1
     efc:	0e 94 eb 19 	call	0x33d6	; 0x33d6 <DIO_u8SetPinValue>
	default:break;
	}
}
     f00:	0f 90       	pop	r0
     f02:	0f 90       	pop	r0
     f04:	0f 90       	pop	r0
     f06:	0f 90       	pop	r0
     f08:	0f 90       	pop	r0
     f0a:	cf 91       	pop	r28
     f0c:	df 91       	pop	r29
     f0e:	08 95       	ret

00000f10 <LED_TurnOn>:
/*********************************************************************************/
/*********************************************************************************/
#include "LED_interface.h"

u8 LED_TurnOn(LED_t* LED)
{
     f10:	df 93       	push	r29
     f12:	cf 93       	push	r28
     f14:	00 d0       	rcall	.+0      	; 0xf16 <LED_TurnOn+0x6>
     f16:	0f 92       	push	r0
     f18:	cd b7       	in	r28, 0x3d	; 61
     f1a:	de b7       	in	r29, 0x3e	; 62
     f1c:	9a 83       	std	Y+2, r25	; 0x02
     f1e:	89 83       	std	Y+1, r24	; 0x01
	DIO_u8SetPinDirection(LED ->PORT,LED->PIN,OUTPUT);
     f20:	e9 81       	ldd	r30, Y+1	; 0x01
     f22:	fa 81       	ldd	r31, Y+2	; 0x02
     f24:	80 81       	ld	r24, Z
     f26:	e9 81       	ldd	r30, Y+1	; 0x01
     f28:	fa 81       	ldd	r31, Y+2	; 0x02
     f2a:	91 81       	ldd	r25, Z+1	; 0x01
     f2c:	69 2f       	mov	r22, r25
     f2e:	41 e0       	ldi	r20, 0x01	; 1
     f30:	0e 94 90 18 	call	0x3120	; 0x3120 <DIO_u8SetPinDirection>
	DIO_u8SetPinValue(LED ->PORT,LED->PIN,HIGH);
     f34:	e9 81       	ldd	r30, Y+1	; 0x01
     f36:	fa 81       	ldd	r31, Y+2	; 0x02
     f38:	80 81       	ld	r24, Z
     f3a:	e9 81       	ldd	r30, Y+1	; 0x01
     f3c:	fa 81       	ldd	r31, Y+2	; 0x02
     f3e:	91 81       	ldd	r25, Z+1	; 0x01
     f40:	69 2f       	mov	r22, r25
     f42:	41 e0       	ldi	r20, 0x01	; 1
     f44:	0e 94 eb 19 	call	0x33d6	; 0x33d6 <DIO_u8SetPinValue>
}
     f48:	0f 90       	pop	r0
     f4a:	0f 90       	pop	r0
     f4c:	0f 90       	pop	r0
     f4e:	cf 91       	pop	r28
     f50:	df 91       	pop	r29
     f52:	08 95       	ret

00000f54 <LED_TurnOff>:

u8 LED_TurnOff(LED_t* LED)
{
     f54:	df 93       	push	r29
     f56:	cf 93       	push	r28
     f58:	00 d0       	rcall	.+0      	; 0xf5a <LED_TurnOff+0x6>
     f5a:	0f 92       	push	r0
     f5c:	cd b7       	in	r28, 0x3d	; 61
     f5e:	de b7       	in	r29, 0x3e	; 62
     f60:	9a 83       	std	Y+2, r25	; 0x02
     f62:	89 83       	std	Y+1, r24	; 0x01
	DIO_u8SetPinDirection(LED ->PORT,LED->PIN,OUTPUT);
     f64:	e9 81       	ldd	r30, Y+1	; 0x01
     f66:	fa 81       	ldd	r31, Y+2	; 0x02
     f68:	80 81       	ld	r24, Z
     f6a:	e9 81       	ldd	r30, Y+1	; 0x01
     f6c:	fa 81       	ldd	r31, Y+2	; 0x02
     f6e:	91 81       	ldd	r25, Z+1	; 0x01
     f70:	69 2f       	mov	r22, r25
     f72:	41 e0       	ldi	r20, 0x01	; 1
     f74:	0e 94 90 18 	call	0x3120	; 0x3120 <DIO_u8SetPinDirection>
	DIO_u8SetPinValue(LED ->PORT,LED->PIN,LOW);
     f78:	e9 81       	ldd	r30, Y+1	; 0x01
     f7a:	fa 81       	ldd	r31, Y+2	; 0x02
     f7c:	80 81       	ld	r24, Z
     f7e:	e9 81       	ldd	r30, Y+1	; 0x01
     f80:	fa 81       	ldd	r31, Y+2	; 0x02
     f82:	91 81       	ldd	r25, Z+1	; 0x01
     f84:	69 2f       	mov	r22, r25
     f86:	40 e0       	ldi	r20, 0x00	; 0
     f88:	0e 94 eb 19 	call	0x33d6	; 0x33d6 <DIO_u8SetPinValue>

}
     f8c:	0f 90       	pop	r0
     f8e:	0f 90       	pop	r0
     f90:	0f 90       	pop	r0
     f92:	cf 91       	pop	r28
     f94:	df 91       	pop	r29
     f96:	08 95       	ret

00000f98 <LCD_voidSendCommand>:

#include "LCD_interface.h"
#include <util/delay.h>

void LCD_voidSendCommand(u8 Copy_u8Command)
{
     f98:	df 93       	push	r29
     f9a:	cf 93       	push	r28
     f9c:	cd b7       	in	r28, 0x3d	; 61
     f9e:	de b7       	in	r29, 0x3e	; 62
     fa0:	e9 97       	sbiw	r28, 0x39	; 57
     fa2:	0f b6       	in	r0, 0x3f	; 63
     fa4:	f8 94       	cli
     fa6:	de bf       	out	0x3e, r29	; 62
     fa8:	0f be       	out	0x3f, r0	; 63
     faa:	cd bf       	out	0x3d, r28	; 61
     fac:	89 af       	std	Y+57, r24	; 0x39
	DIO_u8SetPinValue(LCD_CTRL_PORT,LCD_E_PIN,LOW);


#elif LCD_MODE == FOUR_BIT
	/*set RS pin low for Command*/
	DIO_u8SetPinValue(LCD_CTRL_PORT,LCD_RS_PIN,LOW);
     fae:	82 e0       	ldi	r24, 0x02	; 2
     fb0:	60 e0       	ldi	r22, 0x00	; 0
     fb2:	40 e0       	ldi	r20, 0x00	; 0
     fb4:	0e 94 eb 19 	call	0x33d6	; 0x33d6 <DIO_u8SetPinValue>
	/*Set RW pin LOW for Write*/
	DIO_u8SetPinValue(LCD_CTRL_PORT,LCD_RW_PIN,LOW);
     fb8:	82 e0       	ldi	r24, 0x02	; 2
     fba:	61 e0       	ldi	r22, 0x01	; 1
     fbc:	40 e0       	ldi	r20, 0x00	; 0
     fbe:	0e 94 eb 19 	call	0x33d6	; 0x33d6 <DIO_u8SetPinValue>
	/*Send Command in data PORT*/
	DIO_u8SetPortValue(LCD_DATA_PORT,(Copy_u8Command & 0xf0));
     fc2:	89 ad       	ldd	r24, Y+57	; 0x39
     fc4:	98 2f       	mov	r25, r24
     fc6:	90 7f       	andi	r25, 0xF0	; 240
     fc8:	81 e0       	ldi	r24, 0x01	; 1
     fca:	69 2f       	mov	r22, r25
     fcc:	0e 94 fd 1a 	call	0x35fa	; 0x35fa <DIO_u8SetPortValue>
	/*Send Enable Pulse*/
	DIO_u8SetPinValue(LCD_CTRL_PORT,LCD_E_PIN,HIGH);
     fd0:	82 e0       	ldi	r24, 0x02	; 2
     fd2:	62 e0       	ldi	r22, 0x02	; 2
     fd4:	41 e0       	ldi	r20, 0x01	; 1
     fd6:	0e 94 eb 19 	call	0x33d6	; 0x33d6 <DIO_u8SetPinValue>
     fda:	80 e0       	ldi	r24, 0x00	; 0
     fdc:	90 e0       	ldi	r25, 0x00	; 0
     fde:	a0 ea       	ldi	r26, 0xA0	; 160
     fe0:	b0 e4       	ldi	r27, 0x40	; 64
     fe2:	8d ab       	std	Y+53, r24	; 0x35
     fe4:	9e ab       	std	Y+54, r25	; 0x36
     fe6:	af ab       	std	Y+55, r26	; 0x37
     fe8:	b8 af       	std	Y+56, r27	; 0x38
 */
void
_delay_ms(double __ms)
{
	uint16_t __ticks;
	double __tmp = ((F_CPU) / 4e3) * __ms;
     fea:	6d a9       	ldd	r22, Y+53	; 0x35
     fec:	7e a9       	ldd	r23, Y+54	; 0x36
     fee:	8f a9       	ldd	r24, Y+55	; 0x37
     ff0:	98 ad       	ldd	r25, Y+56	; 0x38
     ff2:	20 e0       	ldi	r18, 0x00	; 0
     ff4:	30 e0       	ldi	r19, 0x00	; 0
     ff6:	4a ef       	ldi	r20, 0xFA	; 250
     ff8:	54 e4       	ldi	r21, 0x44	; 68
     ffa:	0e 94 1f 02 	call	0x43e	; 0x43e <__mulsf3>
     ffe:	dc 01       	movw	r26, r24
    1000:	cb 01       	movw	r24, r22
    1002:	89 ab       	std	Y+49, r24	; 0x31
    1004:	9a ab       	std	Y+50, r25	; 0x32
    1006:	ab ab       	std	Y+51, r26	; 0x33
    1008:	bc ab       	std	Y+52, r27	; 0x34
	if (__tmp < 1.0)
    100a:	69 a9       	ldd	r22, Y+49	; 0x31
    100c:	7a a9       	ldd	r23, Y+50	; 0x32
    100e:	8b a9       	ldd	r24, Y+51	; 0x33
    1010:	9c a9       	ldd	r25, Y+52	; 0x34
    1012:	20 e0       	ldi	r18, 0x00	; 0
    1014:	30 e0       	ldi	r19, 0x00	; 0
    1016:	40 e8       	ldi	r20, 0x80	; 128
    1018:	5f e3       	ldi	r21, 0x3F	; 63
    101a:	0e 94 79 03 	call	0x6f2	; 0x6f2 <__ltsf2>
    101e:	88 23       	and	r24, r24
    1020:	2c f4       	brge	.+10     	; 0x102c <LCD_voidSendCommand+0x94>
		__ticks = 1;
    1022:	81 e0       	ldi	r24, 0x01	; 1
    1024:	90 e0       	ldi	r25, 0x00	; 0
    1026:	98 ab       	std	Y+48, r25	; 0x30
    1028:	8f a7       	std	Y+47, r24	; 0x2f
    102a:	3f c0       	rjmp	.+126    	; 0x10aa <LCD_voidSendCommand+0x112>
	else if (__tmp > 65535)
    102c:	69 a9       	ldd	r22, Y+49	; 0x31
    102e:	7a a9       	ldd	r23, Y+50	; 0x32
    1030:	8b a9       	ldd	r24, Y+51	; 0x33
    1032:	9c a9       	ldd	r25, Y+52	; 0x34
    1034:	20 e0       	ldi	r18, 0x00	; 0
    1036:	3f ef       	ldi	r19, 0xFF	; 255
    1038:	4f e7       	ldi	r20, 0x7F	; 127
    103a:	57 e4       	ldi	r21, 0x47	; 71
    103c:	0e 94 19 03 	call	0x632	; 0x632 <__gtsf2>
    1040:	18 16       	cp	r1, r24
    1042:	4c f5       	brge	.+82     	; 0x1096 <LCD_voidSendCommand+0xfe>
	{
		//	__ticks = requested delay in 1/10 ms
		__ticks = (uint16_t) (__ms * 10.0);
    1044:	6d a9       	ldd	r22, Y+53	; 0x35
    1046:	7e a9       	ldd	r23, Y+54	; 0x36
    1048:	8f a9       	ldd	r24, Y+55	; 0x37
    104a:	98 ad       	ldd	r25, Y+56	; 0x38
    104c:	20 e0       	ldi	r18, 0x00	; 0
    104e:	30 e0       	ldi	r19, 0x00	; 0
    1050:	40 e2       	ldi	r20, 0x20	; 32
    1052:	51 e4       	ldi	r21, 0x41	; 65
    1054:	0e 94 1f 02 	call	0x43e	; 0x43e <__mulsf3>
    1058:	dc 01       	movw	r26, r24
    105a:	cb 01       	movw	r24, r22
    105c:	bc 01       	movw	r22, r24
    105e:	cd 01       	movw	r24, r26
    1060:	0e 94 49 00 	call	0x92	; 0x92 <__fixunssfsi>
    1064:	dc 01       	movw	r26, r24
    1066:	cb 01       	movw	r24, r22
    1068:	98 ab       	std	Y+48, r25	; 0x30
    106a:	8f a7       	std	Y+47, r24	; 0x2f
    106c:	0f c0       	rjmp	.+30     	; 0x108c <LCD_voidSendCommand+0xf4>
    106e:	88 ec       	ldi	r24, 0xC8	; 200
    1070:	90 e0       	ldi	r25, 0x00	; 0
    1072:	9e a7       	std	Y+46, r25	; 0x2e
    1074:	8d a7       	std	Y+45, r24	; 0x2d
    milliseconds can be achieved.
 */
void
_delay_loop_2(uint16_t __count)
{
	__asm__ volatile (
    1076:	8d a5       	ldd	r24, Y+45	; 0x2d
    1078:	9e a5       	ldd	r25, Y+46	; 0x2e
    107a:	01 97       	sbiw	r24, 0x01	; 1
    107c:	f1 f7       	brne	.-4      	; 0x107a <LCD_voidSendCommand+0xe2>
    107e:	9e a7       	std	Y+46, r25	; 0x2e
    1080:	8d a7       	std	Y+45, r24	; 0x2d
		while(__ticks)
		{
			// wait 1/10 ms
			_delay_loop_2(((F_CPU) / 4e3) / 10);
			__ticks --;
    1082:	8f a5       	ldd	r24, Y+47	; 0x2f
    1084:	98 a9       	ldd	r25, Y+48	; 0x30
    1086:	01 97       	sbiw	r24, 0x01	; 1
    1088:	98 ab       	std	Y+48, r25	; 0x30
    108a:	8f a7       	std	Y+47, r24	; 0x2f
		__ticks = 1;
	else if (__tmp > 65535)
	{
		//	__ticks = requested delay in 1/10 ms
		__ticks = (uint16_t) (__ms * 10.0);
		while(__ticks)
    108c:	8f a5       	ldd	r24, Y+47	; 0x2f
    108e:	98 a9       	ldd	r25, Y+48	; 0x30
    1090:	00 97       	sbiw	r24, 0x00	; 0
    1092:	69 f7       	brne	.-38     	; 0x106e <LCD_voidSendCommand+0xd6>
    1094:	14 c0       	rjmp	.+40     	; 0x10be <LCD_voidSendCommand+0x126>
			__ticks --;
		}
		return;
	}
	else
		__ticks = (uint16_t)__tmp;
    1096:	69 a9       	ldd	r22, Y+49	; 0x31
    1098:	7a a9       	ldd	r23, Y+50	; 0x32
    109a:	8b a9       	ldd	r24, Y+51	; 0x33
    109c:	9c a9       	ldd	r25, Y+52	; 0x34
    109e:	0e 94 49 00 	call	0x92	; 0x92 <__fixunssfsi>
    10a2:	dc 01       	movw	r26, r24
    10a4:	cb 01       	movw	r24, r22
    10a6:	98 ab       	std	Y+48, r25	; 0x30
    10a8:	8f a7       	std	Y+47, r24	; 0x2f
    10aa:	8f a5       	ldd	r24, Y+47	; 0x2f
    10ac:	98 a9       	ldd	r25, Y+48	; 0x30
    10ae:	9c a7       	std	Y+44, r25	; 0x2c
    10b0:	8b a7       	std	Y+43, r24	; 0x2b
    10b2:	8b a5       	ldd	r24, Y+43	; 0x2b
    10b4:	9c a5       	ldd	r25, Y+44	; 0x2c
    10b6:	01 97       	sbiw	r24, 0x01	; 1
    10b8:	f1 f7       	brne	.-4      	; 0x10b6 <LCD_voidSendCommand+0x11e>
    10ba:	9c a7       	std	Y+44, r25	; 0x2c
    10bc:	8b a7       	std	Y+43, r24	; 0x2b
	_delay_ms(5);
	DIO_u8SetPinValue(LCD_CTRL_PORT,LCD_E_PIN,LOW);
    10be:	82 e0       	ldi	r24, 0x02	; 2
    10c0:	62 e0       	ldi	r22, 0x02	; 2
    10c2:	40 e0       	ldi	r20, 0x00	; 0
    10c4:	0e 94 eb 19 	call	0x33d6	; 0x33d6 <DIO_u8SetPinValue>
    10c8:	80 e0       	ldi	r24, 0x00	; 0
    10ca:	90 e0       	ldi	r25, 0x00	; 0
    10cc:	a8 e4       	ldi	r26, 0x48	; 72
    10ce:	b2 e4       	ldi	r27, 0x42	; 66
    10d0:	8f a3       	std	Y+39, r24	; 0x27
    10d2:	98 a7       	std	Y+40, r25	; 0x28
    10d4:	a9 a7       	std	Y+41, r26	; 0x29
    10d6:	ba a7       	std	Y+42, r27	; 0x2a
 */
void
_delay_ms(double __ms)
{
	uint16_t __ticks;
	double __tmp = ((F_CPU) / 4e3) * __ms;
    10d8:	6f a1       	ldd	r22, Y+39	; 0x27
    10da:	78 a5       	ldd	r23, Y+40	; 0x28
    10dc:	89 a5       	ldd	r24, Y+41	; 0x29
    10de:	9a a5       	ldd	r25, Y+42	; 0x2a
    10e0:	20 e0       	ldi	r18, 0x00	; 0
    10e2:	30 e0       	ldi	r19, 0x00	; 0
    10e4:	4a ef       	ldi	r20, 0xFA	; 250
    10e6:	54 e4       	ldi	r21, 0x44	; 68
    10e8:	0e 94 1f 02 	call	0x43e	; 0x43e <__mulsf3>
    10ec:	dc 01       	movw	r26, r24
    10ee:	cb 01       	movw	r24, r22
    10f0:	8b a3       	std	Y+35, r24	; 0x23
    10f2:	9c a3       	std	Y+36, r25	; 0x24
    10f4:	ad a3       	std	Y+37, r26	; 0x25
    10f6:	be a3       	std	Y+38, r27	; 0x26
	if (__tmp < 1.0)
    10f8:	6b a1       	ldd	r22, Y+35	; 0x23
    10fa:	7c a1       	ldd	r23, Y+36	; 0x24
    10fc:	8d a1       	ldd	r24, Y+37	; 0x25
    10fe:	9e a1       	ldd	r25, Y+38	; 0x26
    1100:	20 e0       	ldi	r18, 0x00	; 0
    1102:	30 e0       	ldi	r19, 0x00	; 0
    1104:	40 e8       	ldi	r20, 0x80	; 128
    1106:	5f e3       	ldi	r21, 0x3F	; 63
    1108:	0e 94 79 03 	call	0x6f2	; 0x6f2 <__ltsf2>
    110c:	88 23       	and	r24, r24
    110e:	2c f4       	brge	.+10     	; 0x111a <LCD_voidSendCommand+0x182>
		__ticks = 1;
    1110:	81 e0       	ldi	r24, 0x01	; 1
    1112:	90 e0       	ldi	r25, 0x00	; 0
    1114:	9a a3       	std	Y+34, r25	; 0x22
    1116:	89 a3       	std	Y+33, r24	; 0x21
    1118:	3f c0       	rjmp	.+126    	; 0x1198 <LCD_voidSendCommand+0x200>
	else if (__tmp > 65535)
    111a:	6b a1       	ldd	r22, Y+35	; 0x23
    111c:	7c a1       	ldd	r23, Y+36	; 0x24
    111e:	8d a1       	ldd	r24, Y+37	; 0x25
    1120:	9e a1       	ldd	r25, Y+38	; 0x26
    1122:	20 e0       	ldi	r18, 0x00	; 0
    1124:	3f ef       	ldi	r19, 0xFF	; 255
    1126:	4f e7       	ldi	r20, 0x7F	; 127
    1128:	57 e4       	ldi	r21, 0x47	; 71
    112a:	0e 94 19 03 	call	0x632	; 0x632 <__gtsf2>
    112e:	18 16       	cp	r1, r24
    1130:	4c f5       	brge	.+82     	; 0x1184 <LCD_voidSendCommand+0x1ec>
	{
		//	__ticks = requested delay in 1/10 ms
		__ticks = (uint16_t) (__ms * 10.0);
    1132:	6f a1       	ldd	r22, Y+39	; 0x27
    1134:	78 a5       	ldd	r23, Y+40	; 0x28
    1136:	89 a5       	ldd	r24, Y+41	; 0x29
    1138:	9a a5       	ldd	r25, Y+42	; 0x2a
    113a:	20 e0       	ldi	r18, 0x00	; 0
    113c:	30 e0       	ldi	r19, 0x00	; 0
    113e:	40 e2       	ldi	r20, 0x20	; 32
    1140:	51 e4       	ldi	r21, 0x41	; 65
    1142:	0e 94 1f 02 	call	0x43e	; 0x43e <__mulsf3>
    1146:	dc 01       	movw	r26, r24
    1148:	cb 01       	movw	r24, r22
    114a:	bc 01       	movw	r22, r24
    114c:	cd 01       	movw	r24, r26
    114e:	0e 94 49 00 	call	0x92	; 0x92 <__fixunssfsi>
    1152:	dc 01       	movw	r26, r24
    1154:	cb 01       	movw	r24, r22
    1156:	9a a3       	std	Y+34, r25	; 0x22
    1158:	89 a3       	std	Y+33, r24	; 0x21
    115a:	0f c0       	rjmp	.+30     	; 0x117a <LCD_voidSendCommand+0x1e2>
    115c:	88 ec       	ldi	r24, 0xC8	; 200
    115e:	90 e0       	ldi	r25, 0x00	; 0
    1160:	98 a3       	std	Y+32, r25	; 0x20
    1162:	8f 8f       	std	Y+31, r24	; 0x1f
    1164:	8f 8d       	ldd	r24, Y+31	; 0x1f
    1166:	98 a1       	ldd	r25, Y+32	; 0x20
    1168:	01 97       	sbiw	r24, 0x01	; 1
    116a:	f1 f7       	brne	.-4      	; 0x1168 <LCD_voidSendCommand+0x1d0>
    116c:	98 a3       	std	Y+32, r25	; 0x20
    116e:	8f 8f       	std	Y+31, r24	; 0x1f
		while(__ticks)
		{
			// wait 1/10 ms
			_delay_loop_2(((F_CPU) / 4e3) / 10);
			__ticks --;
    1170:	89 a1       	ldd	r24, Y+33	; 0x21
    1172:	9a a1       	ldd	r25, Y+34	; 0x22
    1174:	01 97       	sbiw	r24, 0x01	; 1
    1176:	9a a3       	std	Y+34, r25	; 0x22
    1178:	89 a3       	std	Y+33, r24	; 0x21
		__ticks = 1;
	else if (__tmp > 65535)
	{
		//	__ticks = requested delay in 1/10 ms
		__ticks = (uint16_t) (__ms * 10.0);
		while(__ticks)
    117a:	89 a1       	ldd	r24, Y+33	; 0x21
    117c:	9a a1       	ldd	r25, Y+34	; 0x22
    117e:	00 97       	sbiw	r24, 0x00	; 0
    1180:	69 f7       	brne	.-38     	; 0x115c <LCD_voidSendCommand+0x1c4>
    1182:	14 c0       	rjmp	.+40     	; 0x11ac <LCD_voidSendCommand+0x214>
			__ticks --;
		}
		return;
	}
	else
		__ticks = (uint16_t)__tmp;
    1184:	6b a1       	ldd	r22, Y+35	; 0x23
    1186:	7c a1       	ldd	r23, Y+36	; 0x24
    1188:	8d a1       	ldd	r24, Y+37	; 0x25
    118a:	9e a1       	ldd	r25, Y+38	; 0x26
    118c:	0e 94 49 00 	call	0x92	; 0x92 <__fixunssfsi>
    1190:	dc 01       	movw	r26, r24
    1192:	cb 01       	movw	r24, r22
    1194:	9a a3       	std	Y+34, r25	; 0x22
    1196:	89 a3       	std	Y+33, r24	; 0x21
    1198:	89 a1       	ldd	r24, Y+33	; 0x21
    119a:	9a a1       	ldd	r25, Y+34	; 0x22
    119c:	9e 8f       	std	Y+30, r25	; 0x1e
    119e:	8d 8f       	std	Y+29, r24	; 0x1d
    11a0:	8d 8d       	ldd	r24, Y+29	; 0x1d
    11a2:	9e 8d       	ldd	r25, Y+30	; 0x1e
    11a4:	01 97       	sbiw	r24, 0x01	; 1
    11a6:	f1 f7       	brne	.-4      	; 0x11a4 <LCD_voidSendCommand+0x20c>
    11a8:	9e 8f       	std	Y+30, r25	; 0x1e
    11aa:	8d 8f       	std	Y+29, r24	; 0x1d
	_delay_ms(50);
	/*Send Lower nipple*/
	DIO_u8SetPortValue(LCD_DATA_PORT,(Copy_u8Command << 4));
    11ac:	89 ad       	ldd	r24, Y+57	; 0x39
    11ae:	98 2f       	mov	r25, r24
    11b0:	92 95       	swap	r25
    11b2:	90 7f       	andi	r25, 0xF0	; 240
    11b4:	81 e0       	ldi	r24, 0x01	; 1
    11b6:	69 2f       	mov	r22, r25
    11b8:	0e 94 fd 1a 	call	0x35fa	; 0x35fa <DIO_u8SetPortValue>
	DIO_u8SetPinValue(LCD_CTRL_PORT,LCD_E_PIN,HIGH);
    11bc:	82 e0       	ldi	r24, 0x02	; 2
    11be:	62 e0       	ldi	r22, 0x02	; 2
    11c0:	41 e0       	ldi	r20, 0x01	; 1
    11c2:	0e 94 eb 19 	call	0x33d6	; 0x33d6 <DIO_u8SetPinValue>
    11c6:	80 e0       	ldi	r24, 0x00	; 0
    11c8:	90 e0       	ldi	r25, 0x00	; 0
    11ca:	a0 ea       	ldi	r26, 0xA0	; 160
    11cc:	b0 e4       	ldi	r27, 0x40	; 64
    11ce:	89 8f       	std	Y+25, r24	; 0x19
    11d0:	9a 8f       	std	Y+26, r25	; 0x1a
    11d2:	ab 8f       	std	Y+27, r26	; 0x1b
    11d4:	bc 8f       	std	Y+28, r27	; 0x1c
 */
void
_delay_ms(double __ms)
{
	uint16_t __ticks;
	double __tmp = ((F_CPU) / 4e3) * __ms;
    11d6:	69 8d       	ldd	r22, Y+25	; 0x19
    11d8:	7a 8d       	ldd	r23, Y+26	; 0x1a
    11da:	8b 8d       	ldd	r24, Y+27	; 0x1b
    11dc:	9c 8d       	ldd	r25, Y+28	; 0x1c
    11de:	20 e0       	ldi	r18, 0x00	; 0
    11e0:	30 e0       	ldi	r19, 0x00	; 0
    11e2:	4a ef       	ldi	r20, 0xFA	; 250
    11e4:	54 e4       	ldi	r21, 0x44	; 68
    11e6:	0e 94 1f 02 	call	0x43e	; 0x43e <__mulsf3>
    11ea:	dc 01       	movw	r26, r24
    11ec:	cb 01       	movw	r24, r22
    11ee:	8d 8b       	std	Y+21, r24	; 0x15
    11f0:	9e 8b       	std	Y+22, r25	; 0x16
    11f2:	af 8b       	std	Y+23, r26	; 0x17
    11f4:	b8 8f       	std	Y+24, r27	; 0x18
	if (__tmp < 1.0)
    11f6:	6d 89       	ldd	r22, Y+21	; 0x15
    11f8:	7e 89       	ldd	r23, Y+22	; 0x16
    11fa:	8f 89       	ldd	r24, Y+23	; 0x17
    11fc:	98 8d       	ldd	r25, Y+24	; 0x18
    11fe:	20 e0       	ldi	r18, 0x00	; 0
    1200:	30 e0       	ldi	r19, 0x00	; 0
    1202:	40 e8       	ldi	r20, 0x80	; 128
    1204:	5f e3       	ldi	r21, 0x3F	; 63
    1206:	0e 94 79 03 	call	0x6f2	; 0x6f2 <__ltsf2>
    120a:	88 23       	and	r24, r24
    120c:	2c f4       	brge	.+10     	; 0x1218 <LCD_voidSendCommand+0x280>
		__ticks = 1;
    120e:	81 e0       	ldi	r24, 0x01	; 1
    1210:	90 e0       	ldi	r25, 0x00	; 0
    1212:	9c 8b       	std	Y+20, r25	; 0x14
    1214:	8b 8b       	std	Y+19, r24	; 0x13
    1216:	3f c0       	rjmp	.+126    	; 0x1296 <LCD_voidSendCommand+0x2fe>
	else if (__tmp > 65535)
    1218:	6d 89       	ldd	r22, Y+21	; 0x15
    121a:	7e 89       	ldd	r23, Y+22	; 0x16
    121c:	8f 89       	ldd	r24, Y+23	; 0x17
    121e:	98 8d       	ldd	r25, Y+24	; 0x18
    1220:	20 e0       	ldi	r18, 0x00	; 0
    1222:	3f ef       	ldi	r19, 0xFF	; 255
    1224:	4f e7       	ldi	r20, 0x7F	; 127
    1226:	57 e4       	ldi	r21, 0x47	; 71
    1228:	0e 94 19 03 	call	0x632	; 0x632 <__gtsf2>
    122c:	18 16       	cp	r1, r24
    122e:	4c f5       	brge	.+82     	; 0x1282 <LCD_voidSendCommand+0x2ea>
	{
		//	__ticks = requested delay in 1/10 ms
		__ticks = (uint16_t) (__ms * 10.0);
    1230:	69 8d       	ldd	r22, Y+25	; 0x19
    1232:	7a 8d       	ldd	r23, Y+26	; 0x1a
    1234:	8b 8d       	ldd	r24, Y+27	; 0x1b
    1236:	9c 8d       	ldd	r25, Y+28	; 0x1c
    1238:	20 e0       	ldi	r18, 0x00	; 0
    123a:	30 e0       	ldi	r19, 0x00	; 0
    123c:	40 e2       	ldi	r20, 0x20	; 32
    123e:	51 e4       	ldi	r21, 0x41	; 65
    1240:	0e 94 1f 02 	call	0x43e	; 0x43e <__mulsf3>
    1244:	dc 01       	movw	r26, r24
    1246:	cb 01       	movw	r24, r22
    1248:	bc 01       	movw	r22, r24
    124a:	cd 01       	movw	r24, r26
    124c:	0e 94 49 00 	call	0x92	; 0x92 <__fixunssfsi>
    1250:	dc 01       	movw	r26, r24
    1252:	cb 01       	movw	r24, r22
    1254:	9c 8b       	std	Y+20, r25	; 0x14
    1256:	8b 8b       	std	Y+19, r24	; 0x13
    1258:	0f c0       	rjmp	.+30     	; 0x1278 <LCD_voidSendCommand+0x2e0>
    125a:	88 ec       	ldi	r24, 0xC8	; 200
    125c:	90 e0       	ldi	r25, 0x00	; 0
    125e:	9a 8b       	std	Y+18, r25	; 0x12
    1260:	89 8b       	std	Y+17, r24	; 0x11
    1262:	89 89       	ldd	r24, Y+17	; 0x11
    1264:	9a 89       	ldd	r25, Y+18	; 0x12
    1266:	01 97       	sbiw	r24, 0x01	; 1
    1268:	f1 f7       	brne	.-4      	; 0x1266 <LCD_voidSendCommand+0x2ce>
    126a:	9a 8b       	std	Y+18, r25	; 0x12
    126c:	89 8b       	std	Y+17, r24	; 0x11
		while(__ticks)
		{
			// wait 1/10 ms
			_delay_loop_2(((F_CPU) / 4e3) / 10);
			__ticks --;
    126e:	8b 89       	ldd	r24, Y+19	; 0x13
    1270:	9c 89       	ldd	r25, Y+20	; 0x14
    1272:	01 97       	sbiw	r24, 0x01	; 1
    1274:	9c 8b       	std	Y+20, r25	; 0x14
    1276:	8b 8b       	std	Y+19, r24	; 0x13
		__ticks = 1;
	else if (__tmp > 65535)
	{
		//	__ticks = requested delay in 1/10 ms
		__ticks = (uint16_t) (__ms * 10.0);
		while(__ticks)
    1278:	8b 89       	ldd	r24, Y+19	; 0x13
    127a:	9c 89       	ldd	r25, Y+20	; 0x14
    127c:	00 97       	sbiw	r24, 0x00	; 0
    127e:	69 f7       	brne	.-38     	; 0x125a <LCD_voidSendCommand+0x2c2>
    1280:	14 c0       	rjmp	.+40     	; 0x12aa <LCD_voidSendCommand+0x312>
			__ticks --;
		}
		return;
	}
	else
		__ticks = (uint16_t)__tmp;
    1282:	6d 89       	ldd	r22, Y+21	; 0x15
    1284:	7e 89       	ldd	r23, Y+22	; 0x16
    1286:	8f 89       	ldd	r24, Y+23	; 0x17
    1288:	98 8d       	ldd	r25, Y+24	; 0x18
    128a:	0e 94 49 00 	call	0x92	; 0x92 <__fixunssfsi>
    128e:	dc 01       	movw	r26, r24
    1290:	cb 01       	movw	r24, r22
    1292:	9c 8b       	std	Y+20, r25	; 0x14
    1294:	8b 8b       	std	Y+19, r24	; 0x13
    1296:	8b 89       	ldd	r24, Y+19	; 0x13
    1298:	9c 89       	ldd	r25, Y+20	; 0x14
    129a:	98 8b       	std	Y+16, r25	; 0x10
    129c:	8f 87       	std	Y+15, r24	; 0x0f
    129e:	8f 85       	ldd	r24, Y+15	; 0x0f
    12a0:	98 89       	ldd	r25, Y+16	; 0x10
    12a2:	01 97       	sbiw	r24, 0x01	; 1
    12a4:	f1 f7       	brne	.-4      	; 0x12a2 <LCD_voidSendCommand+0x30a>
    12a6:	98 8b       	std	Y+16, r25	; 0x10
    12a8:	8f 87       	std	Y+15, r24	; 0x0f
	_delay_ms(5);
	DIO_u8SetPinValue(LCD_CTRL_PORT,LCD_E_PIN,LOW);
    12aa:	82 e0       	ldi	r24, 0x02	; 2
    12ac:	62 e0       	ldi	r22, 0x02	; 2
    12ae:	40 e0       	ldi	r20, 0x00	; 0
    12b0:	0e 94 eb 19 	call	0x33d6	; 0x33d6 <DIO_u8SetPinValue>
    12b4:	80 e0       	ldi	r24, 0x00	; 0
    12b6:	90 e0       	ldi	r25, 0x00	; 0
    12b8:	a8 e4       	ldi	r26, 0x48	; 72
    12ba:	b2 e4       	ldi	r27, 0x42	; 66
    12bc:	8b 87       	std	Y+11, r24	; 0x0b
    12be:	9c 87       	std	Y+12, r25	; 0x0c
    12c0:	ad 87       	std	Y+13, r26	; 0x0d
    12c2:	be 87       	std	Y+14, r27	; 0x0e
 */
void
_delay_ms(double __ms)
{
	uint16_t __ticks;
	double __tmp = ((F_CPU) / 4e3) * __ms;
    12c4:	6b 85       	ldd	r22, Y+11	; 0x0b
    12c6:	7c 85       	ldd	r23, Y+12	; 0x0c
    12c8:	8d 85       	ldd	r24, Y+13	; 0x0d
    12ca:	9e 85       	ldd	r25, Y+14	; 0x0e
    12cc:	20 e0       	ldi	r18, 0x00	; 0
    12ce:	30 e0       	ldi	r19, 0x00	; 0
    12d0:	4a ef       	ldi	r20, 0xFA	; 250
    12d2:	54 e4       	ldi	r21, 0x44	; 68
    12d4:	0e 94 1f 02 	call	0x43e	; 0x43e <__mulsf3>
    12d8:	dc 01       	movw	r26, r24
    12da:	cb 01       	movw	r24, r22
    12dc:	8f 83       	std	Y+7, r24	; 0x07
    12de:	98 87       	std	Y+8, r25	; 0x08
    12e0:	a9 87       	std	Y+9, r26	; 0x09
    12e2:	ba 87       	std	Y+10, r27	; 0x0a
	if (__tmp < 1.0)
    12e4:	6f 81       	ldd	r22, Y+7	; 0x07
    12e6:	78 85       	ldd	r23, Y+8	; 0x08
    12e8:	89 85       	ldd	r24, Y+9	; 0x09
    12ea:	9a 85       	ldd	r25, Y+10	; 0x0a
    12ec:	20 e0       	ldi	r18, 0x00	; 0
    12ee:	30 e0       	ldi	r19, 0x00	; 0
    12f0:	40 e8       	ldi	r20, 0x80	; 128
    12f2:	5f e3       	ldi	r21, 0x3F	; 63
    12f4:	0e 94 79 03 	call	0x6f2	; 0x6f2 <__ltsf2>
    12f8:	88 23       	and	r24, r24
    12fa:	2c f4       	brge	.+10     	; 0x1306 <LCD_voidSendCommand+0x36e>
		__ticks = 1;
    12fc:	81 e0       	ldi	r24, 0x01	; 1
    12fe:	90 e0       	ldi	r25, 0x00	; 0
    1300:	9e 83       	std	Y+6, r25	; 0x06
    1302:	8d 83       	std	Y+5, r24	; 0x05
    1304:	3f c0       	rjmp	.+126    	; 0x1384 <LCD_voidSendCommand+0x3ec>
	else if (__tmp > 65535)
    1306:	6f 81       	ldd	r22, Y+7	; 0x07
    1308:	78 85       	ldd	r23, Y+8	; 0x08
    130a:	89 85       	ldd	r24, Y+9	; 0x09
    130c:	9a 85       	ldd	r25, Y+10	; 0x0a
    130e:	20 e0       	ldi	r18, 0x00	; 0
    1310:	3f ef       	ldi	r19, 0xFF	; 255
    1312:	4f e7       	ldi	r20, 0x7F	; 127
    1314:	57 e4       	ldi	r21, 0x47	; 71
    1316:	0e 94 19 03 	call	0x632	; 0x632 <__gtsf2>
    131a:	18 16       	cp	r1, r24
    131c:	4c f5       	brge	.+82     	; 0x1370 <LCD_voidSendCommand+0x3d8>
	{
		//	__ticks = requested delay in 1/10 ms
		__ticks = (uint16_t) (__ms * 10.0);
    131e:	6b 85       	ldd	r22, Y+11	; 0x0b
    1320:	7c 85       	ldd	r23, Y+12	; 0x0c
    1322:	8d 85       	ldd	r24, Y+13	; 0x0d
    1324:	9e 85       	ldd	r25, Y+14	; 0x0e
    1326:	20 e0       	ldi	r18, 0x00	; 0
    1328:	30 e0       	ldi	r19, 0x00	; 0
    132a:	40 e2       	ldi	r20, 0x20	; 32
    132c:	51 e4       	ldi	r21, 0x41	; 65
    132e:	0e 94 1f 02 	call	0x43e	; 0x43e <__mulsf3>
    1332:	dc 01       	movw	r26, r24
    1334:	cb 01       	movw	r24, r22
    1336:	bc 01       	movw	r22, r24
    1338:	cd 01       	movw	r24, r26
    133a:	0e 94 49 00 	call	0x92	; 0x92 <__fixunssfsi>
    133e:	dc 01       	movw	r26, r24
    1340:	cb 01       	movw	r24, r22
    1342:	9e 83       	std	Y+6, r25	; 0x06
    1344:	8d 83       	std	Y+5, r24	; 0x05
    1346:	0f c0       	rjmp	.+30     	; 0x1366 <LCD_voidSendCommand+0x3ce>
    1348:	88 ec       	ldi	r24, 0xC8	; 200
    134a:	90 e0       	ldi	r25, 0x00	; 0
    134c:	9c 83       	std	Y+4, r25	; 0x04
    134e:	8b 83       	std	Y+3, r24	; 0x03
    1350:	8b 81       	ldd	r24, Y+3	; 0x03
    1352:	9c 81       	ldd	r25, Y+4	; 0x04
    1354:	01 97       	sbiw	r24, 0x01	; 1
    1356:	f1 f7       	brne	.-4      	; 0x1354 <LCD_voidSendCommand+0x3bc>
    1358:	9c 83       	std	Y+4, r25	; 0x04
    135a:	8b 83       	std	Y+3, r24	; 0x03
		while(__ticks)
		{
			// wait 1/10 ms
			_delay_loop_2(((F_CPU) / 4e3) / 10);
			__ticks --;
    135c:	8d 81       	ldd	r24, Y+5	; 0x05
    135e:	9e 81       	ldd	r25, Y+6	; 0x06
    1360:	01 97       	sbiw	r24, 0x01	; 1
    1362:	9e 83       	std	Y+6, r25	; 0x06
    1364:	8d 83       	std	Y+5, r24	; 0x05
		__ticks = 1;
	else if (__tmp > 65535)
	{
		//	__ticks = requested delay in 1/10 ms
		__ticks = (uint16_t) (__ms * 10.0);
		while(__ticks)
    1366:	8d 81       	ldd	r24, Y+5	; 0x05
    1368:	9e 81       	ldd	r25, Y+6	; 0x06
    136a:	00 97       	sbiw	r24, 0x00	; 0
    136c:	69 f7       	brne	.-38     	; 0x1348 <LCD_voidSendCommand+0x3b0>
    136e:	14 c0       	rjmp	.+40     	; 0x1398 <LCD_voidSendCommand+0x400>
			__ticks --;
		}
		return;
	}
	else
		__ticks = (uint16_t)__tmp;
    1370:	6f 81       	ldd	r22, Y+7	; 0x07
    1372:	78 85       	ldd	r23, Y+8	; 0x08
    1374:	89 85       	ldd	r24, Y+9	; 0x09
    1376:	9a 85       	ldd	r25, Y+10	; 0x0a
    1378:	0e 94 49 00 	call	0x92	; 0x92 <__fixunssfsi>
    137c:	dc 01       	movw	r26, r24
    137e:	cb 01       	movw	r24, r22
    1380:	9e 83       	std	Y+6, r25	; 0x06
    1382:	8d 83       	std	Y+5, r24	; 0x05
    1384:	8d 81       	ldd	r24, Y+5	; 0x05
    1386:	9e 81       	ldd	r25, Y+6	; 0x06
    1388:	9a 83       	std	Y+2, r25	; 0x02
    138a:	89 83       	std	Y+1, r24	; 0x01
    138c:	89 81       	ldd	r24, Y+1	; 0x01
    138e:	9a 81       	ldd	r25, Y+2	; 0x02
    1390:	01 97       	sbiw	r24, 0x01	; 1
    1392:	f1 f7       	brne	.-4      	; 0x1390 <LCD_voidSendCommand+0x3f8>
    1394:	9a 83       	std	Y+2, r25	; 0x02
    1396:	89 83       	std	Y+1, r24	; 0x01
	_delay_ms(50);
#endif
}
    1398:	e9 96       	adiw	r28, 0x39	; 57
    139a:	0f b6       	in	r0, 0x3f	; 63
    139c:	f8 94       	cli
    139e:	de bf       	out	0x3e, r29	; 62
    13a0:	0f be       	out	0x3f, r0	; 63
    13a2:	cd bf       	out	0x3d, r28	; 61
    13a4:	cf 91       	pop	r28
    13a6:	df 91       	pop	r29
    13a8:	08 95       	ret

000013aa <LCD_voidSendData>:

void LCD_voidSendData(u8 Copy_u8Data)
{
    13aa:	df 93       	push	r29
    13ac:	cf 93       	push	r28
    13ae:	cd b7       	in	r28, 0x3d	; 61
    13b0:	de b7       	in	r29, 0x3e	; 62
    13b2:	6d 97       	sbiw	r28, 0x1d	; 29
    13b4:	0f b6       	in	r0, 0x3f	; 63
    13b6:	f8 94       	cli
    13b8:	de bf       	out	0x3e, r29	; 62
    13ba:	0f be       	out	0x3f, r0	; 63
    13bc:	cd bf       	out	0x3d, r28	; 61
    13be:	8d 8f       	std	Y+29, r24	; 0x1d
	DIO_u8SetPinValue(LCD_CTRL_PORT,LCD_E_PIN,LOW);


#elif LCD_MODE == FOUR_BIT
	/*set RS pin HIGH for DATA*/
	DIO_u8SetPinValue(LCD_CTRL_PORT,LCD_RS_PIN,HIGH );
    13c0:	82 e0       	ldi	r24, 0x02	; 2
    13c2:	60 e0       	ldi	r22, 0x00	; 0
    13c4:	41 e0       	ldi	r20, 0x01	; 1
    13c6:	0e 94 eb 19 	call	0x33d6	; 0x33d6 <DIO_u8SetPinValue>
	/*Set RW pin LOW for Write*/
	DIO_u8SetPinValue(LCD_CTRL_PORT,LCD_RW_PIN,LOW);
    13ca:	82 e0       	ldi	r24, 0x02	; 2
    13cc:	61 e0       	ldi	r22, 0x01	; 1
    13ce:	40 e0       	ldi	r20, 0x00	; 0
    13d0:	0e 94 eb 19 	call	0x33d6	; 0x33d6 <DIO_u8SetPinValue>
	/*Send Command in data PORT*/
	DIO_u8SetPortValue(LCD_DATA_PORT,(Copy_u8Data & 0xf0));
    13d4:	8d 8d       	ldd	r24, Y+29	; 0x1d
    13d6:	98 2f       	mov	r25, r24
    13d8:	90 7f       	andi	r25, 0xF0	; 240
    13da:	81 e0       	ldi	r24, 0x01	; 1
    13dc:	69 2f       	mov	r22, r25
    13de:	0e 94 fd 1a 	call	0x35fa	; 0x35fa <DIO_u8SetPortValue>
	/*Send Enable Pulse*/
	DIO_u8SetPinValue(LCD_CTRL_PORT,LCD_E_PIN,HIGH);
    13e2:	82 e0       	ldi	r24, 0x02	; 2
    13e4:	62 e0       	ldi	r22, 0x02	; 2
    13e6:	41 e0       	ldi	r20, 0x01	; 1
    13e8:	0e 94 eb 19 	call	0x33d6	; 0x33d6 <DIO_u8SetPinValue>
    13ec:	80 e0       	ldi	r24, 0x00	; 0
    13ee:	90 e0       	ldi	r25, 0x00	; 0
    13f0:	a0 e0       	ldi	r26, 0x00	; 0
    13f2:	b0 e4       	ldi	r27, 0x40	; 64
    13f4:	89 8f       	std	Y+25, r24	; 0x19
    13f6:	9a 8f       	std	Y+26, r25	; 0x1a
    13f8:	ab 8f       	std	Y+27, r26	; 0x1b
    13fa:	bc 8f       	std	Y+28, r27	; 0x1c
 */
void
_delay_ms(double __ms)
{
	uint16_t __ticks;
	double __tmp = ((F_CPU) / 4e3) * __ms;
    13fc:	69 8d       	ldd	r22, Y+25	; 0x19
    13fe:	7a 8d       	ldd	r23, Y+26	; 0x1a
    1400:	8b 8d       	ldd	r24, Y+27	; 0x1b
    1402:	9c 8d       	ldd	r25, Y+28	; 0x1c
    1404:	20 e0       	ldi	r18, 0x00	; 0
    1406:	30 e0       	ldi	r19, 0x00	; 0
    1408:	4a ef       	ldi	r20, 0xFA	; 250
    140a:	54 e4       	ldi	r21, 0x44	; 68
    140c:	0e 94 1f 02 	call	0x43e	; 0x43e <__mulsf3>
    1410:	dc 01       	movw	r26, r24
    1412:	cb 01       	movw	r24, r22
    1414:	8d 8b       	std	Y+21, r24	; 0x15
    1416:	9e 8b       	std	Y+22, r25	; 0x16
    1418:	af 8b       	std	Y+23, r26	; 0x17
    141a:	b8 8f       	std	Y+24, r27	; 0x18
	if (__tmp < 1.0)
    141c:	6d 89       	ldd	r22, Y+21	; 0x15
    141e:	7e 89       	ldd	r23, Y+22	; 0x16
    1420:	8f 89       	ldd	r24, Y+23	; 0x17
    1422:	98 8d       	ldd	r25, Y+24	; 0x18
    1424:	20 e0       	ldi	r18, 0x00	; 0
    1426:	30 e0       	ldi	r19, 0x00	; 0
    1428:	40 e8       	ldi	r20, 0x80	; 128
    142a:	5f e3       	ldi	r21, 0x3F	; 63
    142c:	0e 94 79 03 	call	0x6f2	; 0x6f2 <__ltsf2>
    1430:	88 23       	and	r24, r24
    1432:	2c f4       	brge	.+10     	; 0x143e <LCD_voidSendData+0x94>
		__ticks = 1;
    1434:	81 e0       	ldi	r24, 0x01	; 1
    1436:	90 e0       	ldi	r25, 0x00	; 0
    1438:	9c 8b       	std	Y+20, r25	; 0x14
    143a:	8b 8b       	std	Y+19, r24	; 0x13
    143c:	3f c0       	rjmp	.+126    	; 0x14bc <LCD_voidSendData+0x112>
	else if (__tmp > 65535)
    143e:	6d 89       	ldd	r22, Y+21	; 0x15
    1440:	7e 89       	ldd	r23, Y+22	; 0x16
    1442:	8f 89       	ldd	r24, Y+23	; 0x17
    1444:	98 8d       	ldd	r25, Y+24	; 0x18
    1446:	20 e0       	ldi	r18, 0x00	; 0
    1448:	3f ef       	ldi	r19, 0xFF	; 255
    144a:	4f e7       	ldi	r20, 0x7F	; 127
    144c:	57 e4       	ldi	r21, 0x47	; 71
    144e:	0e 94 19 03 	call	0x632	; 0x632 <__gtsf2>
    1452:	18 16       	cp	r1, r24
    1454:	4c f5       	brge	.+82     	; 0x14a8 <LCD_voidSendData+0xfe>
	{
		//	__ticks = requested delay in 1/10 ms
		__ticks = (uint16_t) (__ms * 10.0);
    1456:	69 8d       	ldd	r22, Y+25	; 0x19
    1458:	7a 8d       	ldd	r23, Y+26	; 0x1a
    145a:	8b 8d       	ldd	r24, Y+27	; 0x1b
    145c:	9c 8d       	ldd	r25, Y+28	; 0x1c
    145e:	20 e0       	ldi	r18, 0x00	; 0
    1460:	30 e0       	ldi	r19, 0x00	; 0
    1462:	40 e2       	ldi	r20, 0x20	; 32
    1464:	51 e4       	ldi	r21, 0x41	; 65
    1466:	0e 94 1f 02 	call	0x43e	; 0x43e <__mulsf3>
    146a:	dc 01       	movw	r26, r24
    146c:	cb 01       	movw	r24, r22
    146e:	bc 01       	movw	r22, r24
    1470:	cd 01       	movw	r24, r26
    1472:	0e 94 49 00 	call	0x92	; 0x92 <__fixunssfsi>
    1476:	dc 01       	movw	r26, r24
    1478:	cb 01       	movw	r24, r22
    147a:	9c 8b       	std	Y+20, r25	; 0x14
    147c:	8b 8b       	std	Y+19, r24	; 0x13
    147e:	0f c0       	rjmp	.+30     	; 0x149e <LCD_voidSendData+0xf4>
    1480:	88 ec       	ldi	r24, 0xC8	; 200
    1482:	90 e0       	ldi	r25, 0x00	; 0
    1484:	9a 8b       	std	Y+18, r25	; 0x12
    1486:	89 8b       	std	Y+17, r24	; 0x11
    1488:	89 89       	ldd	r24, Y+17	; 0x11
    148a:	9a 89       	ldd	r25, Y+18	; 0x12
    148c:	01 97       	sbiw	r24, 0x01	; 1
    148e:	f1 f7       	brne	.-4      	; 0x148c <LCD_voidSendData+0xe2>
    1490:	9a 8b       	std	Y+18, r25	; 0x12
    1492:	89 8b       	std	Y+17, r24	; 0x11
		while(__ticks)
		{
			// wait 1/10 ms
			_delay_loop_2(((F_CPU) / 4e3) / 10);
			__ticks --;
    1494:	8b 89       	ldd	r24, Y+19	; 0x13
    1496:	9c 89       	ldd	r25, Y+20	; 0x14
    1498:	01 97       	sbiw	r24, 0x01	; 1
    149a:	9c 8b       	std	Y+20, r25	; 0x14
    149c:	8b 8b       	std	Y+19, r24	; 0x13
		__ticks = 1;
	else if (__tmp > 65535)
	{
		//	__ticks = requested delay in 1/10 ms
		__ticks = (uint16_t) (__ms * 10.0);
		while(__ticks)
    149e:	8b 89       	ldd	r24, Y+19	; 0x13
    14a0:	9c 89       	ldd	r25, Y+20	; 0x14
    14a2:	00 97       	sbiw	r24, 0x00	; 0
    14a4:	69 f7       	brne	.-38     	; 0x1480 <LCD_voidSendData+0xd6>
    14a6:	14 c0       	rjmp	.+40     	; 0x14d0 <LCD_voidSendData+0x126>
			__ticks --;
		}
		return;
	}
	else
		__ticks = (uint16_t)__tmp;
    14a8:	6d 89       	ldd	r22, Y+21	; 0x15
    14aa:	7e 89       	ldd	r23, Y+22	; 0x16
    14ac:	8f 89       	ldd	r24, Y+23	; 0x17
    14ae:	98 8d       	ldd	r25, Y+24	; 0x18
    14b0:	0e 94 49 00 	call	0x92	; 0x92 <__fixunssfsi>
    14b4:	dc 01       	movw	r26, r24
    14b6:	cb 01       	movw	r24, r22
    14b8:	9c 8b       	std	Y+20, r25	; 0x14
    14ba:	8b 8b       	std	Y+19, r24	; 0x13
    14bc:	8b 89       	ldd	r24, Y+19	; 0x13
    14be:	9c 89       	ldd	r25, Y+20	; 0x14
    14c0:	98 8b       	std	Y+16, r25	; 0x10
    14c2:	8f 87       	std	Y+15, r24	; 0x0f
    14c4:	8f 85       	ldd	r24, Y+15	; 0x0f
    14c6:	98 89       	ldd	r25, Y+16	; 0x10
    14c8:	01 97       	sbiw	r24, 0x01	; 1
    14ca:	f1 f7       	brne	.-4      	; 0x14c8 <LCD_voidSendData+0x11e>
    14cc:	98 8b       	std	Y+16, r25	; 0x10
    14ce:	8f 87       	std	Y+15, r24	; 0x0f
	_delay_ms(2);
	DIO_u8SetPinValue(LCD_CTRL_PORT,LCD_E_PIN,LOW);
    14d0:	82 e0       	ldi	r24, 0x02	; 2
    14d2:	62 e0       	ldi	r22, 0x02	; 2
    14d4:	40 e0       	ldi	r20, 0x00	; 0
    14d6:	0e 94 eb 19 	call	0x33d6	; 0x33d6 <DIO_u8SetPinValue>
	/*Send Lower Data*/
	DIO_u8SetPortValue(LCD_DATA_PORT,(Copy_u8Data << 4));
    14da:	8d 8d       	ldd	r24, Y+29	; 0x1d
    14dc:	98 2f       	mov	r25, r24
    14de:	92 95       	swap	r25
    14e0:	90 7f       	andi	r25, 0xF0	; 240
    14e2:	81 e0       	ldi	r24, 0x01	; 1
    14e4:	69 2f       	mov	r22, r25
    14e6:	0e 94 fd 1a 	call	0x35fa	; 0x35fa <DIO_u8SetPortValue>
	/*Send Enable Pulse*/
	DIO_u8SetPinValue(LCD_CTRL_PORT,LCD_E_PIN,HIGH);
    14ea:	82 e0       	ldi	r24, 0x02	; 2
    14ec:	62 e0       	ldi	r22, 0x02	; 2
    14ee:	41 e0       	ldi	r20, 0x01	; 1
    14f0:	0e 94 eb 19 	call	0x33d6	; 0x33d6 <DIO_u8SetPinValue>
    14f4:	80 e0       	ldi	r24, 0x00	; 0
    14f6:	90 e0       	ldi	r25, 0x00	; 0
    14f8:	a0 e0       	ldi	r26, 0x00	; 0
    14fa:	b0 e4       	ldi	r27, 0x40	; 64
    14fc:	8b 87       	std	Y+11, r24	; 0x0b
    14fe:	9c 87       	std	Y+12, r25	; 0x0c
    1500:	ad 87       	std	Y+13, r26	; 0x0d
    1502:	be 87       	std	Y+14, r27	; 0x0e
 */
void
_delay_ms(double __ms)
{
	uint16_t __ticks;
	double __tmp = ((F_CPU) / 4e3) * __ms;
    1504:	6b 85       	ldd	r22, Y+11	; 0x0b
    1506:	7c 85       	ldd	r23, Y+12	; 0x0c
    1508:	8d 85       	ldd	r24, Y+13	; 0x0d
    150a:	9e 85       	ldd	r25, Y+14	; 0x0e
    150c:	20 e0       	ldi	r18, 0x00	; 0
    150e:	30 e0       	ldi	r19, 0x00	; 0
    1510:	4a ef       	ldi	r20, 0xFA	; 250
    1512:	54 e4       	ldi	r21, 0x44	; 68
    1514:	0e 94 1f 02 	call	0x43e	; 0x43e <__mulsf3>
    1518:	dc 01       	movw	r26, r24
    151a:	cb 01       	movw	r24, r22
    151c:	8f 83       	std	Y+7, r24	; 0x07
    151e:	98 87       	std	Y+8, r25	; 0x08
    1520:	a9 87       	std	Y+9, r26	; 0x09
    1522:	ba 87       	std	Y+10, r27	; 0x0a
	if (__tmp < 1.0)
    1524:	6f 81       	ldd	r22, Y+7	; 0x07
    1526:	78 85       	ldd	r23, Y+8	; 0x08
    1528:	89 85       	ldd	r24, Y+9	; 0x09
    152a:	9a 85       	ldd	r25, Y+10	; 0x0a
    152c:	20 e0       	ldi	r18, 0x00	; 0
    152e:	30 e0       	ldi	r19, 0x00	; 0
    1530:	40 e8       	ldi	r20, 0x80	; 128
    1532:	5f e3       	ldi	r21, 0x3F	; 63
    1534:	0e 94 79 03 	call	0x6f2	; 0x6f2 <__ltsf2>
    1538:	88 23       	and	r24, r24
    153a:	2c f4       	brge	.+10     	; 0x1546 <LCD_voidSendData+0x19c>
		__ticks = 1;
    153c:	81 e0       	ldi	r24, 0x01	; 1
    153e:	90 e0       	ldi	r25, 0x00	; 0
    1540:	9e 83       	std	Y+6, r25	; 0x06
    1542:	8d 83       	std	Y+5, r24	; 0x05
    1544:	3f c0       	rjmp	.+126    	; 0x15c4 <LCD_voidSendData+0x21a>
	else if (__tmp > 65535)
    1546:	6f 81       	ldd	r22, Y+7	; 0x07
    1548:	78 85       	ldd	r23, Y+8	; 0x08
    154a:	89 85       	ldd	r24, Y+9	; 0x09
    154c:	9a 85       	ldd	r25, Y+10	; 0x0a
    154e:	20 e0       	ldi	r18, 0x00	; 0
    1550:	3f ef       	ldi	r19, 0xFF	; 255
    1552:	4f e7       	ldi	r20, 0x7F	; 127
    1554:	57 e4       	ldi	r21, 0x47	; 71
    1556:	0e 94 19 03 	call	0x632	; 0x632 <__gtsf2>
    155a:	18 16       	cp	r1, r24
    155c:	4c f5       	brge	.+82     	; 0x15b0 <LCD_voidSendData+0x206>
	{
		//	__ticks = requested delay in 1/10 ms
		__ticks = (uint16_t) (__ms * 10.0);
    155e:	6b 85       	ldd	r22, Y+11	; 0x0b
    1560:	7c 85       	ldd	r23, Y+12	; 0x0c
    1562:	8d 85       	ldd	r24, Y+13	; 0x0d
    1564:	9e 85       	ldd	r25, Y+14	; 0x0e
    1566:	20 e0       	ldi	r18, 0x00	; 0
    1568:	30 e0       	ldi	r19, 0x00	; 0
    156a:	40 e2       	ldi	r20, 0x20	; 32
    156c:	51 e4       	ldi	r21, 0x41	; 65
    156e:	0e 94 1f 02 	call	0x43e	; 0x43e <__mulsf3>
    1572:	dc 01       	movw	r26, r24
    1574:	cb 01       	movw	r24, r22
    1576:	bc 01       	movw	r22, r24
    1578:	cd 01       	movw	r24, r26
    157a:	0e 94 49 00 	call	0x92	; 0x92 <__fixunssfsi>
    157e:	dc 01       	movw	r26, r24
    1580:	cb 01       	movw	r24, r22
    1582:	9e 83       	std	Y+6, r25	; 0x06
    1584:	8d 83       	std	Y+5, r24	; 0x05
    1586:	0f c0       	rjmp	.+30     	; 0x15a6 <LCD_voidSendData+0x1fc>
    1588:	88 ec       	ldi	r24, 0xC8	; 200
    158a:	90 e0       	ldi	r25, 0x00	; 0
    158c:	9c 83       	std	Y+4, r25	; 0x04
    158e:	8b 83       	std	Y+3, r24	; 0x03
    1590:	8b 81       	ldd	r24, Y+3	; 0x03
    1592:	9c 81       	ldd	r25, Y+4	; 0x04
    1594:	01 97       	sbiw	r24, 0x01	; 1
    1596:	f1 f7       	brne	.-4      	; 0x1594 <LCD_voidSendData+0x1ea>
    1598:	9c 83       	std	Y+4, r25	; 0x04
    159a:	8b 83       	std	Y+3, r24	; 0x03
		while(__ticks)
		{
			// wait 1/10 ms
			_delay_loop_2(((F_CPU) / 4e3) / 10);
			__ticks --;
    159c:	8d 81       	ldd	r24, Y+5	; 0x05
    159e:	9e 81       	ldd	r25, Y+6	; 0x06
    15a0:	01 97       	sbiw	r24, 0x01	; 1
    15a2:	9e 83       	std	Y+6, r25	; 0x06
    15a4:	8d 83       	std	Y+5, r24	; 0x05
		__ticks = 1;
	else if (__tmp > 65535)
	{
		//	__ticks = requested delay in 1/10 ms
		__ticks = (uint16_t) (__ms * 10.0);
		while(__ticks)
    15a6:	8d 81       	ldd	r24, Y+5	; 0x05
    15a8:	9e 81       	ldd	r25, Y+6	; 0x06
    15aa:	00 97       	sbiw	r24, 0x00	; 0
    15ac:	69 f7       	brne	.-38     	; 0x1588 <LCD_voidSendData+0x1de>
    15ae:	14 c0       	rjmp	.+40     	; 0x15d8 <LCD_voidSendData+0x22e>
			__ticks --;
		}
		return;
	}
	else
		__ticks = (uint16_t)__tmp;
    15b0:	6f 81       	ldd	r22, Y+7	; 0x07
    15b2:	78 85       	ldd	r23, Y+8	; 0x08
    15b4:	89 85       	ldd	r24, Y+9	; 0x09
    15b6:	9a 85       	ldd	r25, Y+10	; 0x0a
    15b8:	0e 94 49 00 	call	0x92	; 0x92 <__fixunssfsi>
    15bc:	dc 01       	movw	r26, r24
    15be:	cb 01       	movw	r24, r22
    15c0:	9e 83       	std	Y+6, r25	; 0x06
    15c2:	8d 83       	std	Y+5, r24	; 0x05
    15c4:	8d 81       	ldd	r24, Y+5	; 0x05
    15c6:	9e 81       	ldd	r25, Y+6	; 0x06
    15c8:	9a 83       	std	Y+2, r25	; 0x02
    15ca:	89 83       	std	Y+1, r24	; 0x01
    15cc:	89 81       	ldd	r24, Y+1	; 0x01
    15ce:	9a 81       	ldd	r25, Y+2	; 0x02
    15d0:	01 97       	sbiw	r24, 0x01	; 1
    15d2:	f1 f7       	brne	.-4      	; 0x15d0 <LCD_voidSendData+0x226>
    15d4:	9a 83       	std	Y+2, r25	; 0x02
    15d6:	89 83       	std	Y+1, r24	; 0x01
	_delay_ms(2);
	DIO_u8SetPinValue(LCD_CTRL_PORT,LCD_E_PIN,LOW);
    15d8:	82 e0       	ldi	r24, 0x02	; 2
    15da:	62 e0       	ldi	r22, 0x02	; 2
    15dc:	40 e0       	ldi	r20, 0x00	; 0
    15de:	0e 94 eb 19 	call	0x33d6	; 0x33d6 <DIO_u8SetPinValue>
#endif
}
    15e2:	6d 96       	adiw	r28, 0x1d	; 29
    15e4:	0f b6       	in	r0, 0x3f	; 63
    15e6:	f8 94       	cli
    15e8:	de bf       	out	0x3e, r29	; 62
    15ea:	0f be       	out	0x3f, r0	; 63
    15ec:	cd bf       	out	0x3d, r28	; 61
    15ee:	cf 91       	pop	r28
    15f0:	df 91       	pop	r29
    15f2:	08 95       	ret

000015f4 <LCD_voidInit>:

void LCD_voidInit(void)
{
    15f4:	df 93       	push	r29
    15f6:	cf 93       	push	r28
    15f8:	cd b7       	in	r28, 0x3d	; 61
    15fa:	de b7       	in	r29, 0x3e	; 62
    15fc:	2e 97       	sbiw	r28, 0x0e	; 14
    15fe:	0f b6       	in	r0, 0x3f	; 63
    1600:	f8 94       	cli
    1602:	de bf       	out	0x3e, r29	; 62
    1604:	0f be       	out	0x3f, r0	; 63
    1606:	cd bf       	out	0x3d, r28	; 61
    1608:	80 e0       	ldi	r24, 0x00	; 0
    160a:	90 e0       	ldi	r25, 0x00	; 0
    160c:	a0 ef       	ldi	r26, 0xF0	; 240
    160e:	b1 e4       	ldi	r27, 0x41	; 65
    1610:	8b 87       	std	Y+11, r24	; 0x0b
    1612:	9c 87       	std	Y+12, r25	; 0x0c
    1614:	ad 87       	std	Y+13, r26	; 0x0d
    1616:	be 87       	std	Y+14, r27	; 0x0e
 */
void
_delay_ms(double __ms)
{
	uint16_t __ticks;
	double __tmp = ((F_CPU) / 4e3) * __ms;
    1618:	6b 85       	ldd	r22, Y+11	; 0x0b
    161a:	7c 85       	ldd	r23, Y+12	; 0x0c
    161c:	8d 85       	ldd	r24, Y+13	; 0x0d
    161e:	9e 85       	ldd	r25, Y+14	; 0x0e
    1620:	20 e0       	ldi	r18, 0x00	; 0
    1622:	30 e0       	ldi	r19, 0x00	; 0
    1624:	4a ef       	ldi	r20, 0xFA	; 250
    1626:	54 e4       	ldi	r21, 0x44	; 68
    1628:	0e 94 1f 02 	call	0x43e	; 0x43e <__mulsf3>
    162c:	dc 01       	movw	r26, r24
    162e:	cb 01       	movw	r24, r22
    1630:	8f 83       	std	Y+7, r24	; 0x07
    1632:	98 87       	std	Y+8, r25	; 0x08
    1634:	a9 87       	std	Y+9, r26	; 0x09
    1636:	ba 87       	std	Y+10, r27	; 0x0a
	if (__tmp < 1.0)
    1638:	6f 81       	ldd	r22, Y+7	; 0x07
    163a:	78 85       	ldd	r23, Y+8	; 0x08
    163c:	89 85       	ldd	r24, Y+9	; 0x09
    163e:	9a 85       	ldd	r25, Y+10	; 0x0a
    1640:	20 e0       	ldi	r18, 0x00	; 0
    1642:	30 e0       	ldi	r19, 0x00	; 0
    1644:	40 e8       	ldi	r20, 0x80	; 128
    1646:	5f e3       	ldi	r21, 0x3F	; 63
    1648:	0e 94 79 03 	call	0x6f2	; 0x6f2 <__ltsf2>
    164c:	88 23       	and	r24, r24
    164e:	2c f4       	brge	.+10     	; 0x165a <LCD_voidInit+0x66>
		__ticks = 1;
    1650:	81 e0       	ldi	r24, 0x01	; 1
    1652:	90 e0       	ldi	r25, 0x00	; 0
    1654:	9e 83       	std	Y+6, r25	; 0x06
    1656:	8d 83       	std	Y+5, r24	; 0x05
    1658:	3f c0       	rjmp	.+126    	; 0x16d8 <LCD_voidInit+0xe4>
	else if (__tmp > 65535)
    165a:	6f 81       	ldd	r22, Y+7	; 0x07
    165c:	78 85       	ldd	r23, Y+8	; 0x08
    165e:	89 85       	ldd	r24, Y+9	; 0x09
    1660:	9a 85       	ldd	r25, Y+10	; 0x0a
    1662:	20 e0       	ldi	r18, 0x00	; 0
    1664:	3f ef       	ldi	r19, 0xFF	; 255
    1666:	4f e7       	ldi	r20, 0x7F	; 127
    1668:	57 e4       	ldi	r21, 0x47	; 71
    166a:	0e 94 19 03 	call	0x632	; 0x632 <__gtsf2>
    166e:	18 16       	cp	r1, r24
    1670:	4c f5       	brge	.+82     	; 0x16c4 <LCD_voidInit+0xd0>
	{
		//	__ticks = requested delay in 1/10 ms
		__ticks = (uint16_t) (__ms * 10.0);
    1672:	6b 85       	ldd	r22, Y+11	; 0x0b
    1674:	7c 85       	ldd	r23, Y+12	; 0x0c
    1676:	8d 85       	ldd	r24, Y+13	; 0x0d
    1678:	9e 85       	ldd	r25, Y+14	; 0x0e
    167a:	20 e0       	ldi	r18, 0x00	; 0
    167c:	30 e0       	ldi	r19, 0x00	; 0
    167e:	40 e2       	ldi	r20, 0x20	; 32
    1680:	51 e4       	ldi	r21, 0x41	; 65
    1682:	0e 94 1f 02 	call	0x43e	; 0x43e <__mulsf3>
    1686:	dc 01       	movw	r26, r24
    1688:	cb 01       	movw	r24, r22
    168a:	bc 01       	movw	r22, r24
    168c:	cd 01       	movw	r24, r26
    168e:	0e 94 49 00 	call	0x92	; 0x92 <__fixunssfsi>
    1692:	dc 01       	movw	r26, r24
    1694:	cb 01       	movw	r24, r22
    1696:	9e 83       	std	Y+6, r25	; 0x06
    1698:	8d 83       	std	Y+5, r24	; 0x05
    169a:	0f c0       	rjmp	.+30     	; 0x16ba <LCD_voidInit+0xc6>
    169c:	88 ec       	ldi	r24, 0xC8	; 200
    169e:	90 e0       	ldi	r25, 0x00	; 0
    16a0:	9c 83       	std	Y+4, r25	; 0x04
    16a2:	8b 83       	std	Y+3, r24	; 0x03
    16a4:	8b 81       	ldd	r24, Y+3	; 0x03
    16a6:	9c 81       	ldd	r25, Y+4	; 0x04
    16a8:	01 97       	sbiw	r24, 0x01	; 1
    16aa:	f1 f7       	brne	.-4      	; 0x16a8 <LCD_voidInit+0xb4>
    16ac:	9c 83       	std	Y+4, r25	; 0x04
    16ae:	8b 83       	std	Y+3, r24	; 0x03
		while(__ticks)
		{
			// wait 1/10 ms
			_delay_loop_2(((F_CPU) / 4e3) / 10);
			__ticks --;
    16b0:	8d 81       	ldd	r24, Y+5	; 0x05
    16b2:	9e 81       	ldd	r25, Y+6	; 0x06
    16b4:	01 97       	sbiw	r24, 0x01	; 1
    16b6:	9e 83       	std	Y+6, r25	; 0x06
    16b8:	8d 83       	std	Y+5, r24	; 0x05
		__ticks = 1;
	else if (__tmp > 65535)
	{
		//	__ticks = requested delay in 1/10 ms
		__ticks = (uint16_t) (__ms * 10.0);
		while(__ticks)
    16ba:	8d 81       	ldd	r24, Y+5	; 0x05
    16bc:	9e 81       	ldd	r25, Y+6	; 0x06
    16be:	00 97       	sbiw	r24, 0x00	; 0
    16c0:	69 f7       	brne	.-38     	; 0x169c <LCD_voidInit+0xa8>
    16c2:	14 c0       	rjmp	.+40     	; 0x16ec <LCD_voidInit+0xf8>
			__ticks --;
		}
		return;
	}
	else
		__ticks = (uint16_t)__tmp;
    16c4:	6f 81       	ldd	r22, Y+7	; 0x07
    16c6:	78 85       	ldd	r23, Y+8	; 0x08
    16c8:	89 85       	ldd	r24, Y+9	; 0x09
    16ca:	9a 85       	ldd	r25, Y+10	; 0x0a
    16cc:	0e 94 49 00 	call	0x92	; 0x92 <__fixunssfsi>
    16d0:	dc 01       	movw	r26, r24
    16d2:	cb 01       	movw	r24, r22
    16d4:	9e 83       	std	Y+6, r25	; 0x06
    16d6:	8d 83       	std	Y+5, r24	; 0x05
    16d8:	8d 81       	ldd	r24, Y+5	; 0x05
    16da:	9e 81       	ldd	r25, Y+6	; 0x06
    16dc:	9a 83       	std	Y+2, r25	; 0x02
    16de:	89 83       	std	Y+1, r24	; 0x01
    16e0:	89 81       	ldd	r24, Y+1	; 0x01
    16e2:	9a 81       	ldd	r25, Y+2	; 0x02
    16e4:	01 97       	sbiw	r24, 0x01	; 1
    16e6:	f1 f7       	brne	.-4      	; 0x16e4 <LCD_voidInit+0xf0>
    16e8:	9a 83       	std	Y+2, r25	; 0x02
    16ea:	89 83       	std	Y+1, r24	; 0x01


#elif LCD_MODE == FOUR_BIT

	_delay_ms(30);
	LCD_voidSendCommand(0x02);
    16ec:	82 e0       	ldi	r24, 0x02	; 2
    16ee:	0e 94 cc 07 	call	0xf98	; 0xf98 <LCD_voidSendCommand>
	LCD_voidSendCommand(0x28);
    16f2:	88 e2       	ldi	r24, 0x28	; 40
    16f4:	0e 94 cc 07 	call	0xf98	; 0xf98 <LCD_voidSendCommand>
	LCD_voidSendCommand(0x0c);
    16f8:	8c e0       	ldi	r24, 0x0C	; 12
    16fa:	0e 94 cc 07 	call	0xf98	; 0xf98 <LCD_voidSendCommand>
	LCD_voidSendCommand(0x06);
    16fe:	86 e0       	ldi	r24, 0x06	; 6
    1700:	0e 94 cc 07 	call	0xf98	; 0xf98 <LCD_voidSendCommand>

#endif

}
    1704:	2e 96       	adiw	r28, 0x0e	; 14
    1706:	0f b6       	in	r0, 0x3f	; 63
    1708:	f8 94       	cli
    170a:	de bf       	out	0x3e, r29	; 62
    170c:	0f be       	out	0x3f, r0	; 63
    170e:	cd bf       	out	0x3d, r28	; 61
    1710:	cf 91       	pop	r28
    1712:	df 91       	pop	r29
    1714:	08 95       	ret

00001716 <LCD_voidSendString>:

void LCD_voidSendString(const char* String )
{
    1716:	df 93       	push	r29
    1718:	cf 93       	push	r28
    171a:	00 d0       	rcall	.+0      	; 0x171c <LCD_voidSendString+0x6>
    171c:	0f 92       	push	r0
    171e:	cd b7       	in	r28, 0x3d	; 61
    1720:	de b7       	in	r29, 0x3e	; 62
    1722:	9b 83       	std	Y+3, r25	; 0x03
    1724:	8a 83       	std	Y+2, r24	; 0x02
	u8 Counter =  0 ;
    1726:	19 82       	std	Y+1, r1	; 0x01
    1728:	0e c0       	rjmp	.+28     	; 0x1746 <LCD_voidSendString+0x30>
	while(String[Counter])
	{
		LCD_voidSendData(String[Counter]);
    172a:	89 81       	ldd	r24, Y+1	; 0x01
    172c:	28 2f       	mov	r18, r24
    172e:	30 e0       	ldi	r19, 0x00	; 0
    1730:	8a 81       	ldd	r24, Y+2	; 0x02
    1732:	9b 81       	ldd	r25, Y+3	; 0x03
    1734:	fc 01       	movw	r30, r24
    1736:	e2 0f       	add	r30, r18
    1738:	f3 1f       	adc	r31, r19
    173a:	80 81       	ld	r24, Z
    173c:	0e 94 d5 09 	call	0x13aa	; 0x13aa <LCD_voidSendData>
		Counter++;
    1740:	89 81       	ldd	r24, Y+1	; 0x01
    1742:	8f 5f       	subi	r24, 0xFF	; 255
    1744:	89 83       	std	Y+1, r24	; 0x01
}

void LCD_voidSendString(const char* String )
{
	u8 Counter =  0 ;
	while(String[Counter])
    1746:	89 81       	ldd	r24, Y+1	; 0x01
    1748:	28 2f       	mov	r18, r24
    174a:	30 e0       	ldi	r19, 0x00	; 0
    174c:	8a 81       	ldd	r24, Y+2	; 0x02
    174e:	9b 81       	ldd	r25, Y+3	; 0x03
    1750:	fc 01       	movw	r30, r24
    1752:	e2 0f       	add	r30, r18
    1754:	f3 1f       	adc	r31, r19
    1756:	80 81       	ld	r24, Z
    1758:	88 23       	and	r24, r24
    175a:	39 f7       	brne	.-50     	; 0x172a <LCD_voidSendString+0x14>
	{
		LCD_voidSendData(String[Counter]);
		Counter++;
	}
}
    175c:	0f 90       	pop	r0
    175e:	0f 90       	pop	r0
    1760:	0f 90       	pop	r0
    1762:	cf 91       	pop	r28
    1764:	df 91       	pop	r29
    1766:	08 95       	ret

00001768 <LCD_voidGoToXY>:

void LCD_voidGoToXY(u8 X_position,u8 Y_Position)
{
    1768:	df 93       	push	r29
    176a:	cf 93       	push	r28
    176c:	00 d0       	rcall	.+0      	; 0x176e <LCD_voidGoToXY+0x6>
    176e:	0f 92       	push	r0
    1770:	cd b7       	in	r28, 0x3d	; 61
    1772:	de b7       	in	r29, 0x3e	; 62
    1774:	8a 83       	std	Y+2, r24	; 0x02
    1776:	6b 83       	std	Y+3, r22	; 0x03
	u8 Address;
	/*X position is the Row and Y is Col.
	 * Address of first row is from 0 to 0xf
	 * Second row is from 0x40 to 0x4f*/
	if(X_position==0)
    1778:	8a 81       	ldd	r24, Y+2	; 0x02
    177a:	88 23       	and	r24, r24
    177c:	19 f4       	brne	.+6      	; 0x1784 <LCD_voidGoToXY+0x1c>
	{
		Address =Y_Position;
    177e:	8b 81       	ldd	r24, Y+3	; 0x03
    1780:	89 83       	std	Y+1, r24	; 0x01
    1782:	06 c0       	rjmp	.+12     	; 0x1790 <LCD_voidGoToXY+0x28>
	}
	else if(X_position==1)
    1784:	8a 81       	ldd	r24, Y+2	; 0x02
    1786:	81 30       	cpi	r24, 0x01	; 1
    1788:	19 f4       	brne	.+6      	; 0x1790 <LCD_voidGoToXY+0x28>
	{
		Address =0x40 + Y_Position ;
    178a:	8b 81       	ldd	r24, Y+3	; 0x03
    178c:	80 5c       	subi	r24, 0xC0	; 192
    178e:	89 83       	std	Y+1, r24	; 0x01
	}
	/*The command to set address that you want is 0b10000000
	 * So we add 128 to the address*/
	LCD_voidSendCommand((Address|0b10000000));
    1790:	89 81       	ldd	r24, Y+1	; 0x01
    1792:	80 68       	ori	r24, 0x80	; 128
    1794:	0e 94 cc 07 	call	0xf98	; 0xf98 <LCD_voidSendCommand>
}
    1798:	0f 90       	pop	r0
    179a:	0f 90       	pop	r0
    179c:	0f 90       	pop	r0
    179e:	cf 91       	pop	r28
    17a0:	df 91       	pop	r29
    17a2:	08 95       	ret

000017a4 <LCD_voidSpecialChar>:

void LCD_voidSpecialChar(u8* Pattern,u8 Block_no,u8 Xposition,u8 Yposition)
{
    17a4:	df 93       	push	r29
    17a6:	cf 93       	push	r28
    17a8:	cd b7       	in	r28, 0x3d	; 61
    17aa:	de b7       	in	r29, 0x3e	; 62
    17ac:	27 97       	sbiw	r28, 0x07	; 7
    17ae:	0f b6       	in	r0, 0x3f	; 63
    17b0:	f8 94       	cli
    17b2:	de bf       	out	0x3e, r29	; 62
    17b4:	0f be       	out	0x3f, r0	; 63
    17b6:	cd bf       	out	0x3d, r28	; 61
    17b8:	9c 83       	std	Y+4, r25	; 0x04
    17ba:	8b 83       	std	Y+3, r24	; 0x03
    17bc:	6d 83       	std	Y+5, r22	; 0x05
    17be:	4e 83       	std	Y+6, r20	; 0x06
    17c0:	2f 83       	std	Y+7, r18	; 0x07
	u8 Address = Block_no*8;
    17c2:	8d 81       	ldd	r24, Y+5	; 0x05
    17c4:	88 2f       	mov	r24, r24
    17c6:	90 e0       	ldi	r25, 0x00	; 0
    17c8:	88 0f       	add	r24, r24
    17ca:	99 1f       	adc	r25, r25
    17cc:	88 0f       	add	r24, r24
    17ce:	99 1f       	adc	r25, r25
    17d0:	88 0f       	add	r24, r24
    17d2:	99 1f       	adc	r25, r25
    17d4:	8a 83       	std	Y+2, r24	; 0x02
	LCD_voidSendCommand(Address+64);
    17d6:	8a 81       	ldd	r24, Y+2	; 0x02
    17d8:	80 5c       	subi	r24, 0xC0	; 192
    17da:	0e 94 cc 07 	call	0xf98	; 0xf98 <LCD_voidSendCommand>
	for(u8 i=0 ;i<8;i++)
    17de:	19 82       	std	Y+1, r1	; 0x01
    17e0:	0e c0       	rjmp	.+28     	; 0x17fe <LCD_voidSpecialChar+0x5a>
	{
		LCD_voidSendData(Pattern[i]);
    17e2:	89 81       	ldd	r24, Y+1	; 0x01
    17e4:	28 2f       	mov	r18, r24
    17e6:	30 e0       	ldi	r19, 0x00	; 0
    17e8:	8b 81       	ldd	r24, Y+3	; 0x03
    17ea:	9c 81       	ldd	r25, Y+4	; 0x04
    17ec:	fc 01       	movw	r30, r24
    17ee:	e2 0f       	add	r30, r18
    17f0:	f3 1f       	adc	r31, r19
    17f2:	80 81       	ld	r24, Z
    17f4:	0e 94 d5 09 	call	0x13aa	; 0x13aa <LCD_voidSendData>

void LCD_voidSpecialChar(u8* Pattern,u8 Block_no,u8 Xposition,u8 Yposition)
{
	u8 Address = Block_no*8;
	LCD_voidSendCommand(Address+64);
	for(u8 i=0 ;i<8;i++)
    17f8:	89 81       	ldd	r24, Y+1	; 0x01
    17fa:	8f 5f       	subi	r24, 0xFF	; 255
    17fc:	89 83       	std	Y+1, r24	; 0x01
    17fe:	89 81       	ldd	r24, Y+1	; 0x01
    1800:	88 30       	cpi	r24, 0x08	; 8
    1802:	78 f3       	brcs	.-34     	; 0x17e2 <LCD_voidSpecialChar+0x3e>
	{
		LCD_voidSendData(Pattern[i]);
	}
	LCD_voidGoToXY(Xposition,Yposition);
    1804:	8e 81       	ldd	r24, Y+6	; 0x06
    1806:	6f 81       	ldd	r22, Y+7	; 0x07
    1808:	0e 94 b4 0b 	call	0x1768	; 0x1768 <LCD_voidGoToXY>
	LCD_voidSendData(Block_no);
    180c:	8d 81       	ldd	r24, Y+5	; 0x05
    180e:	0e 94 d5 09 	call	0x13aa	; 0x13aa <LCD_voidSendData>
}
    1812:	27 96       	adiw	r28, 0x07	; 7
    1814:	0f b6       	in	r0, 0x3f	; 63
    1816:	f8 94       	cli
    1818:	de bf       	out	0x3e, r29	; 62
    181a:	0f be       	out	0x3f, r0	; 63
    181c:	cd bf       	out	0x3d, r28	; 61
    181e:	cf 91       	pop	r28
    1820:	df 91       	pop	r29
    1822:	08 95       	ret

00001824 <LCD_voidWriteNumber>:
void LCD_voidWriteNumber(u32 Number)
{
    1824:	df 93       	push	r29
    1826:	cf 93       	push	r28
    1828:	cd b7       	in	r28, 0x3d	; 61
    182a:	de b7       	in	r29, 0x3e	; 62
    182c:	63 97       	sbiw	r28, 0x13	; 19
    182e:	0f b6       	in	r0, 0x3f	; 63
    1830:	f8 94       	cli
    1832:	de bf       	out	0x3e, r29	; 62
    1834:	0f be       	out	0x3f, r0	; 63
    1836:	cd bf       	out	0x3d, r28	; 61
    1838:	68 8b       	std	Y+16, r22	; 0x10
    183a:	79 8b       	std	Y+17, r23	; 0x11
    183c:	8a 8b       	std	Y+18, r24	; 0x12
    183e:	9b 8b       	std	Y+19, r25	; 0x13
	u8 str[8];
	u8 i;
	u32 num;
	u8 rem;
	u8 len =0;
    1840:	19 82       	std	Y+1, r1	; 0x01
	num=Number;
    1842:	88 89       	ldd	r24, Y+16	; 0x10
    1844:	99 89       	ldd	r25, Y+17	; 0x11
    1846:	aa 89       	ldd	r26, Y+18	; 0x12
    1848:	bb 89       	ldd	r27, Y+19	; 0x13
    184a:	8b 83       	std	Y+3, r24	; 0x03
    184c:	9c 83       	std	Y+4, r25	; 0x04
    184e:	ad 83       	std	Y+5, r26	; 0x05
    1850:	be 83       	std	Y+6, r27	; 0x06
    1852:	15 c0       	rjmp	.+42     	; 0x187e <LCD_voidWriteNumber+0x5a>
	while(num != 0)
	{
		len++;
    1854:	89 81       	ldd	r24, Y+1	; 0x01
    1856:	8f 5f       	subi	r24, 0xFF	; 255
    1858:	89 83       	std	Y+1, r24	; 0x01
		num=num/10;
    185a:	8b 81       	ldd	r24, Y+3	; 0x03
    185c:	9c 81       	ldd	r25, Y+4	; 0x04
    185e:	ad 81       	ldd	r26, Y+5	; 0x05
    1860:	be 81       	ldd	r27, Y+6	; 0x06
    1862:	2a e0       	ldi	r18, 0x0A	; 10
    1864:	30 e0       	ldi	r19, 0x00	; 0
    1866:	40 e0       	ldi	r20, 0x00	; 0
    1868:	50 e0       	ldi	r21, 0x00	; 0
    186a:	bc 01       	movw	r22, r24
    186c:	cd 01       	movw	r24, r26
    186e:	0e 94 7b 1d 	call	0x3af6	; 0x3af6 <__udivmodsi4>
    1872:	da 01       	movw	r26, r20
    1874:	c9 01       	movw	r24, r18
    1876:	8b 83       	std	Y+3, r24	; 0x03
    1878:	9c 83       	std	Y+4, r25	; 0x04
    187a:	ad 83       	std	Y+5, r26	; 0x05
    187c:	be 83       	std	Y+6, r27	; 0x06
	u8 i;
	u32 num;
	u8 rem;
	u8 len =0;
	num=Number;
	while(num != 0)
    187e:	8b 81       	ldd	r24, Y+3	; 0x03
    1880:	9c 81       	ldd	r25, Y+4	; 0x04
    1882:	ad 81       	ldd	r26, Y+5	; 0x05
    1884:	be 81       	ldd	r27, Y+6	; 0x06
    1886:	00 97       	sbiw	r24, 0x00	; 0
    1888:	a1 05       	cpc	r26, r1
    188a:	b1 05       	cpc	r27, r1
    188c:	19 f7       	brne	.-58     	; 0x1854 <LCD_voidWriteNumber+0x30>
	{
		len++;
		num=num/10;
	}
	if(len==0)
    188e:	89 81       	ldd	r24, Y+1	; 0x01
    1890:	88 23       	and	r24, r24
    1892:	19 f4       	brne	.+6      	; 0x189a <LCD_voidWriteNumber+0x76>
	{
		LCD_voidSendData('0');
    1894:	80 e3       	ldi	r24, 0x30	; 48
    1896:	0e 94 d5 09 	call	0x13aa	; 0x13aa <LCD_voidSendData>

	}
	for(i=0;i<len;i++)
    189a:	1f 82       	std	Y+7, r1	; 0x07
    189c:	37 c0       	rjmp	.+110    	; 0x190c <LCD_voidWriteNumber+0xe8>
	{
		rem=Number%10;
    189e:	88 89       	ldd	r24, Y+16	; 0x10
    18a0:	99 89       	ldd	r25, Y+17	; 0x11
    18a2:	aa 89       	ldd	r26, Y+18	; 0x12
    18a4:	bb 89       	ldd	r27, Y+19	; 0x13
    18a6:	2a e0       	ldi	r18, 0x0A	; 10
    18a8:	30 e0       	ldi	r19, 0x00	; 0
    18aa:	40 e0       	ldi	r20, 0x00	; 0
    18ac:	50 e0       	ldi	r21, 0x00	; 0
    18ae:	bc 01       	movw	r22, r24
    18b0:	cd 01       	movw	r24, r26
    18b2:	0e 94 7b 1d 	call	0x3af6	; 0x3af6 <__udivmodsi4>
    18b6:	dc 01       	movw	r26, r24
    18b8:	cb 01       	movw	r24, r22
    18ba:	8a 83       	std	Y+2, r24	; 0x02
		Number=Number/10;
    18bc:	88 89       	ldd	r24, Y+16	; 0x10
    18be:	99 89       	ldd	r25, Y+17	; 0x11
    18c0:	aa 89       	ldd	r26, Y+18	; 0x12
    18c2:	bb 89       	ldd	r27, Y+19	; 0x13
    18c4:	2a e0       	ldi	r18, 0x0A	; 10
    18c6:	30 e0       	ldi	r19, 0x00	; 0
    18c8:	40 e0       	ldi	r20, 0x00	; 0
    18ca:	50 e0       	ldi	r21, 0x00	; 0
    18cc:	bc 01       	movw	r22, r24
    18ce:	cd 01       	movw	r24, r26
    18d0:	0e 94 7b 1d 	call	0x3af6	; 0x3af6 <__udivmodsi4>
    18d4:	da 01       	movw	r26, r20
    18d6:	c9 01       	movw	r24, r18
    18d8:	88 8b       	std	Y+16, r24	; 0x10
    18da:	99 8b       	std	Y+17, r25	; 0x11
    18dc:	aa 8b       	std	Y+18, r26	; 0x12
    18de:	bb 8b       	std	Y+19, r27	; 0x13
		str[len-(i+1)]=rem+'0';
    18e0:	89 81       	ldd	r24, Y+1	; 0x01
    18e2:	28 2f       	mov	r18, r24
    18e4:	30 e0       	ldi	r19, 0x00	; 0
    18e6:	8f 81       	ldd	r24, Y+7	; 0x07
    18e8:	88 2f       	mov	r24, r24
    18ea:	90 e0       	ldi	r25, 0x00	; 0
    18ec:	80 95       	com	r24
    18ee:	90 95       	com	r25
    18f0:	28 0f       	add	r18, r24
    18f2:	39 1f       	adc	r19, r25
    18f4:	8a 81       	ldd	r24, Y+2	; 0x02
    18f6:	48 2f       	mov	r20, r24
    18f8:	40 5d       	subi	r20, 0xD0	; 208
    18fa:	ce 01       	movw	r24, r28
    18fc:	08 96       	adiw	r24, 0x08	; 8
    18fe:	fc 01       	movw	r30, r24
    1900:	e2 0f       	add	r30, r18
    1902:	f3 1f       	adc	r31, r19
    1904:	40 83       	st	Z, r20
	if(len==0)
	{
		LCD_voidSendData('0');

	}
	for(i=0;i<len;i++)
    1906:	8f 81       	ldd	r24, Y+7	; 0x07
    1908:	8f 5f       	subi	r24, 0xFF	; 255
    190a:	8f 83       	std	Y+7, r24	; 0x07
    190c:	9f 81       	ldd	r25, Y+7	; 0x07
    190e:	89 81       	ldd	r24, Y+1	; 0x01
    1910:	98 17       	cp	r25, r24
    1912:	28 f2       	brcs	.-118    	; 0x189e <LCD_voidWriteNumber+0x7a>
	{
		rem=Number%10;
		Number=Number/10;
		str[len-(i+1)]=rem+'0';
	}
	str[len]='\0';
    1914:	89 81       	ldd	r24, Y+1	; 0x01
    1916:	28 2f       	mov	r18, r24
    1918:	30 e0       	ldi	r19, 0x00	; 0
    191a:	ce 01       	movw	r24, r28
    191c:	08 96       	adiw	r24, 0x08	; 8
    191e:	fc 01       	movw	r30, r24
    1920:	e2 0f       	add	r30, r18
    1922:	f3 1f       	adc	r31, r19
    1924:	10 82       	st	Z, r1
	LCD_voidSendString(str);
    1926:	ce 01       	movw	r24, r28
    1928:	08 96       	adiw	r24, 0x08	; 8
    192a:	0e 94 8b 0b 	call	0x1716	; 0x1716 <LCD_voidSendString>
}
    192e:	63 96       	adiw	r28, 0x13	; 19
    1930:	0f b6       	in	r0, 0x3f	; 63
    1932:	f8 94       	cli
    1934:	de bf       	out	0x3e, r29	; 62
    1936:	0f be       	out	0x3f, r0	; 63
    1938:	cd bf       	out	0x3d, r28	; 61
    193a:	cf 91       	pop	r28
    193c:	df 91       	pop	r29
    193e:	08 95       	ret

00001940 <KP_u8GetPressedKey>:
/*********************************************************************************/
/*********************************************************************************/
#include "KP_interface.h"

u8 KP_u8GetPressedKey(void)
{
    1940:	df 93       	push	r29
    1942:	cf 93       	push	r28
    1944:	00 d0       	rcall	.+0      	; 0x1946 <KP_u8GetPressedKey+0x6>
    1946:	00 d0       	rcall	.+0      	; 0x1948 <KP_u8GetPressedKey+0x8>
    1948:	0f 92       	push	r0
    194a:	cd b7       	in	r28, 0x3d	; 61
    194c:	de b7       	in	r29, 0x3e	; 62
	DIO_u8SetPortDirection(KP_PORT, 0b00001111);
    194e:	83 e0       	ldi	r24, 0x03	; 3
    1950:	6f e0       	ldi	r22, 0x0F	; 15
    1952:	0e 94 a2 19 	call	0x3344	; 0x3344 <DIO_u8SetPortDirection>
	DIO_u8SetPortValue(KP_PORT, 0xff);
    1956:	83 e0       	ldi	r24, 0x03	; 3
    1958:	6f ef       	ldi	r22, 0xFF	; 255
    195a:	0e 94 fd 1a 	call	0x35fa	; 0x35fa <DIO_u8SetPortValue>
	 u8 PressedKey = NoPressedKey;
    195e:	8f ef       	ldi	r24, 0xFF	; 255
    1960:	8b 83       	std	Y+3, r24	; 0x03
	 u8 Column,Row;
	static u8 KP_arr[4][4]= KPD_arr_val;
	static u8 KP_ColArr[4] ={KP_Col1,KP_Col2,KP_Col3,KP_Col4};
	static u8 KP_RowArr[4] ={KP_Row1,KP_Row2,KP_Row3,KP_Row4};

	for(Column=0;Column<4;Column++)
    1962:	1a 82       	std	Y+2, r1	; 0x02
    1964:	6a c0       	rjmp	.+212    	; 0x1a3a <KP_u8GetPressedKey+0xfa>
	{
		/*activate current Column*/
		DIO_u8SetPinValue(KP_PORT,KP_ColArr[Column],LOW);
    1966:	8a 81       	ldd	r24, Y+2	; 0x02
    1968:	88 2f       	mov	r24, r24
    196a:	90 e0       	ldi	r25, 0x00	; 0
    196c:	fc 01       	movw	r30, r24
    196e:	ea 58       	subi	r30, 0x8A	; 138
    1970:	fe 4f       	sbci	r31, 0xFE	; 254
    1972:	90 81       	ld	r25, Z
    1974:	83 e0       	ldi	r24, 0x03	; 3
    1976:	69 2f       	mov	r22, r25
    1978:	40 e0       	ldi	r20, 0x00	; 0
    197a:	0e 94 eb 19 	call	0x33d6	; 0x33d6 <DIO_u8SetPinValue>

		for(Row=0;Row<4;Row++)
    197e:	19 82       	std	Y+1, r1	; 0x01
    1980:	49 c0       	rjmp	.+146    	; 0x1a14 <KP_u8GetPressedKey+0xd4>
		{
			/*Check Row Pins*/
			DIO_u8GetPinValue(KP_PORT, KP_RowArr[Row],&PinState);
    1982:	89 81       	ldd	r24, Y+1	; 0x01
    1984:	88 2f       	mov	r24, r24
    1986:	90 e0       	ldi	r25, 0x00	; 0
    1988:	fc 01       	movw	r30, r24
    198a:	ee 58       	subi	r30, 0x8E	; 142
    198c:	fe 4f       	sbci	r31, 0xFE	; 254
    198e:	90 81       	ld	r25, Z
    1990:	9e 01       	movw	r18, r28
    1992:	2c 5f       	subi	r18, 0xFC	; 252
    1994:	3f 4f       	sbci	r19, 0xFF	; 255
    1996:	83 e0       	ldi	r24, 0x03	; 3
    1998:	69 2f       	mov	r22, r25
    199a:	a9 01       	movw	r20, r18
    199c:	0e 94 46 1b 	call	0x368c	; 0x368c <DIO_u8GetPinValue>
			/*Check pin state*/
			if(PinState==0)
    19a0:	8c 81       	ldd	r24, Y+4	; 0x04
    19a2:	88 23       	and	r24, r24
    19a4:	a1 f5       	brne	.+104    	; 0x1a0e <KP_u8GetPressedKey+0xce>
			{
				PressedKey=KP_arr[Row][Column];
    19a6:	89 81       	ldd	r24, Y+1	; 0x01
    19a8:	48 2f       	mov	r20, r24
    19aa:	50 e0       	ldi	r21, 0x00	; 0
    19ac:	8a 81       	ldd	r24, Y+2	; 0x02
    19ae:	28 2f       	mov	r18, r24
    19b0:	30 e0       	ldi	r19, 0x00	; 0
    19b2:	ca 01       	movw	r24, r20
    19b4:	88 0f       	add	r24, r24
    19b6:	99 1f       	adc	r25, r25
    19b8:	88 0f       	add	r24, r24
    19ba:	99 1f       	adc	r25, r25
    19bc:	82 0f       	add	r24, r18
    19be:	93 1f       	adc	r25, r19
    19c0:	fc 01       	movw	r30, r24
    19c2:	e6 58       	subi	r30, 0x86	; 134
    19c4:	fe 4f       	sbci	r31, 0xFE	; 254
    19c6:	80 81       	ld	r24, Z
    19c8:	8b 83       	std	Y+3, r24	; 0x03
    19ca:	0f c0       	rjmp	.+30     	; 0x19ea <KP_u8GetPressedKey+0xaa>
				while(PinState==0)
				{
					DIO_u8GetPinValue(KP_PORT, KP_RowArr[Row],&PinState);
    19cc:	89 81       	ldd	r24, Y+1	; 0x01
    19ce:	88 2f       	mov	r24, r24
    19d0:	90 e0       	ldi	r25, 0x00	; 0
    19d2:	fc 01       	movw	r30, r24
    19d4:	ee 58       	subi	r30, 0x8E	; 142
    19d6:	fe 4f       	sbci	r31, 0xFE	; 254
    19d8:	90 81       	ld	r25, Z
    19da:	9e 01       	movw	r18, r28
    19dc:	2c 5f       	subi	r18, 0xFC	; 252
    19de:	3f 4f       	sbci	r19, 0xFF	; 255
    19e0:	83 e0       	ldi	r24, 0x03	; 3
    19e2:	69 2f       	mov	r22, r25
    19e4:	a9 01       	movw	r20, r18
    19e6:	0e 94 46 1b 	call	0x368c	; 0x368c <DIO_u8GetPinValue>
			DIO_u8GetPinValue(KP_PORT, KP_RowArr[Row],&PinState);
			/*Check pin state*/
			if(PinState==0)
			{
				PressedKey=KP_arr[Row][Column];
				while(PinState==0)
    19ea:	8c 81       	ldd	r24, Y+4	; 0x04
    19ec:	88 23       	and	r24, r24
    19ee:	71 f3       	breq	.-36     	; 0x19cc <KP_u8GetPressedKey+0x8c>
				{
					DIO_u8GetPinValue(KP_PORT, KP_RowArr[Row],&PinState);
				}
				DIO_u8SetPinValue(KP_PORT,KP_ColArr[Column],HIGH);
    19f0:	8a 81       	ldd	r24, Y+2	; 0x02
    19f2:	88 2f       	mov	r24, r24
    19f4:	90 e0       	ldi	r25, 0x00	; 0
    19f6:	fc 01       	movw	r30, r24
    19f8:	ea 58       	subi	r30, 0x8A	; 138
    19fa:	fe 4f       	sbci	r31, 0xFE	; 254
    19fc:	90 81       	ld	r25, Z
    19fe:	83 e0       	ldi	r24, 0x03	; 3
    1a00:	69 2f       	mov	r22, r25
    1a02:	41 e0       	ldi	r20, 0x01	; 1
    1a04:	0e 94 eb 19 	call	0x33d6	; 0x33d6 <DIO_u8SetPinValue>
				return PressedKey;
    1a08:	8b 81       	ldd	r24, Y+3	; 0x03
    1a0a:	8d 83       	std	Y+5, r24	; 0x05
    1a0c:	1c c0       	rjmp	.+56     	; 0x1a46 <KP_u8GetPressedKey+0x106>
	for(Column=0;Column<4;Column++)
	{
		/*activate current Column*/
		DIO_u8SetPinValue(KP_PORT,KP_ColArr[Column],LOW);

		for(Row=0;Row<4;Row++)
    1a0e:	89 81       	ldd	r24, Y+1	; 0x01
    1a10:	8f 5f       	subi	r24, 0xFF	; 255
    1a12:	89 83       	std	Y+1, r24	; 0x01
    1a14:	89 81       	ldd	r24, Y+1	; 0x01
    1a16:	84 30       	cpi	r24, 0x04	; 4
    1a18:	08 f4       	brcc	.+2      	; 0x1a1c <KP_u8GetPressedKey+0xdc>
    1a1a:	b3 cf       	rjmp	.-154    	; 0x1982 <KP_u8GetPressedKey+0x42>
				DIO_u8SetPinValue(KP_PORT,KP_ColArr[Column],HIGH);
				return PressedKey;
			}
		}
		/*Deactivate Column*/
		DIO_u8SetPinValue(KP_PORT,KP_ColArr[Column],HIGH);
    1a1c:	8a 81       	ldd	r24, Y+2	; 0x02
    1a1e:	88 2f       	mov	r24, r24
    1a20:	90 e0       	ldi	r25, 0x00	; 0
    1a22:	fc 01       	movw	r30, r24
    1a24:	ea 58       	subi	r30, 0x8A	; 138
    1a26:	fe 4f       	sbci	r31, 0xFE	; 254
    1a28:	90 81       	ld	r25, Z
    1a2a:	83 e0       	ldi	r24, 0x03	; 3
    1a2c:	69 2f       	mov	r22, r25
    1a2e:	41 e0       	ldi	r20, 0x01	; 1
    1a30:	0e 94 eb 19 	call	0x33d6	; 0x33d6 <DIO_u8SetPinValue>
	 u8 Column,Row;
	static u8 KP_arr[4][4]= KPD_arr_val;
	static u8 KP_ColArr[4] ={KP_Col1,KP_Col2,KP_Col3,KP_Col4};
	static u8 KP_RowArr[4] ={KP_Row1,KP_Row2,KP_Row3,KP_Row4};

	for(Column=0;Column<4;Column++)
    1a34:	8a 81       	ldd	r24, Y+2	; 0x02
    1a36:	8f 5f       	subi	r24, 0xFF	; 255
    1a38:	8a 83       	std	Y+2, r24	; 0x02
    1a3a:	8a 81       	ldd	r24, Y+2	; 0x02
    1a3c:	84 30       	cpi	r24, 0x04	; 4
    1a3e:	08 f4       	brcc	.+2      	; 0x1a42 <KP_u8GetPressedKey+0x102>
    1a40:	92 cf       	rjmp	.-220    	; 0x1966 <KP_u8GetPressedKey+0x26>
		/*Deactivate Column*/
		DIO_u8SetPinValue(KP_PORT,KP_ColArr[Column],HIGH);
	}


	return PressedKey;
    1a42:	8b 81       	ldd	r24, Y+3	; 0x03
    1a44:	8d 83       	std	Y+5, r24	; 0x05
    1a46:	8d 81       	ldd	r24, Y+5	; 0x05
}
    1a48:	0f 90       	pop	r0
    1a4a:	0f 90       	pop	r0
    1a4c:	0f 90       	pop	r0
    1a4e:	0f 90       	pop	r0
    1a50:	0f 90       	pop	r0
    1a52:	cf 91       	pop	r28
    1a54:	df 91       	pop	r29
    1a56:	08 95       	ret

00001a58 <PORT_voidInit>:
/*********************************************************************************/
/*********************************************************************************/
#include "Port_interface.h"

void PORT_voidInit(void)
{
    1a58:	df 93       	push	r29
    1a5a:	cf 93       	push	r28
    1a5c:	cd b7       	in	r28, 0x3d	; 61
    1a5e:	de b7       	in	r29, 0x3e	; 62
	DDRA = PORTA_DIR ;
    1a60:	ea e3       	ldi	r30, 0x3A	; 58
    1a62:	f0 e0       	ldi	r31, 0x00	; 0
    1a64:	80 ef       	ldi	r24, 0xF0	; 240
    1a66:	80 83       	st	Z, r24
	DDRB = PORTB_DIR ;
    1a68:	e7 e3       	ldi	r30, 0x37	; 55
    1a6a:	f0 e0       	ldi	r31, 0x00	; 0
    1a6c:	8f e0       	ldi	r24, 0x0F	; 15
    1a6e:	80 83       	st	Z, r24
	DDRC = PORTC_DIR ;
    1a70:	e4 e3       	ldi	r30, 0x34	; 52
    1a72:	f0 e0       	ldi	r31, 0x00	; 0
    1a74:	10 82       	st	Z, r1
	DDRD = PORTD_DIR ;
    1a76:	e1 e3       	ldi	r30, 0x31	; 49
    1a78:	f0 e0       	ldi	r31, 0x00	; 0
    1a7a:	10 82       	st	Z, r1

	PORTA = PORTA_INT;
    1a7c:	eb e3       	ldi	r30, 0x3B	; 59
    1a7e:	f0 e0       	ldi	r31, 0x00	; 0
    1a80:	10 82       	st	Z, r1
	PORTB = PORTB_INT;
    1a82:	e8 e3       	ldi	r30, 0x38	; 56
    1a84:	f0 e0       	ldi	r31, 0x00	; 0
    1a86:	10 82       	st	Z, r1
	PORTC = PORTC_INT;
    1a88:	e5 e3       	ldi	r30, 0x35	; 53
    1a8a:	f0 e0       	ldi	r31, 0x00	; 0
    1a8c:	10 82       	st	Z, r1
	PORTD = PORTD_INT;
    1a8e:	e2 e3       	ldi	r30, 0x32	; 50
    1a90:	f0 e0       	ldi	r31, 0x00	; 0
    1a92:	10 82       	st	Z, r1
}
    1a94:	cf 91       	pop	r28
    1a96:	df 91       	pop	r29
    1a98:	08 95       	ret

00001a9a <DELAY_NonBlockHelper>:
static u8 Init_F=NOT_INITIALIZED;
static u16 Copy_u8Time=0;
static u8 Period=0;

void DELAY_NonBlockHelper(void)
{
    1a9a:	df 93       	push	r29
    1a9c:	cf 93       	push	r28
    1a9e:	cd b7       	in	r28, 0x3d	; 61
    1aa0:	de b7       	in	r29, 0x3e	; 62
	static u16 counter_ms=0;
	static u8 counter_us=0;
	counter_us++;
    1aa2:	80 91 96 01 	lds	r24, 0x0196
    1aa6:	8f 5f       	subi	r24, 0xFF	; 255
    1aa8:	80 93 96 01 	sts	0x0196, r24
	if(Period==PERIODIC)
    1aac:	80 91 95 01 	lds	r24, 0x0195
    1ab0:	81 30       	cpi	r24, 0x01	; 1
    1ab2:	21 f5       	brne	.+72     	; 0x1afc <DELAY_NonBlockHelper+0x62>
	{
		if(counter_us==4)
    1ab4:	80 91 96 01 	lds	r24, 0x0196
    1ab8:	84 30       	cpi	r24, 0x04	; 4
    1aba:	59 f4       	brne	.+22     	; 0x1ad2 <DELAY_NonBlockHelper+0x38>
		{
			counter_ms++;
    1abc:	80 91 97 01 	lds	r24, 0x0197
    1ac0:	90 91 98 01 	lds	r25, 0x0198
    1ac4:	01 96       	adiw	r24, 0x01	; 1
    1ac6:	90 93 98 01 	sts	0x0198, r25
    1aca:	80 93 97 01 	sts	0x0197, r24
			counter_us=0;
    1ace:	10 92 96 01 	sts	0x0196, r1
		}
		if(counter_ms==Copy_u8Time)
    1ad2:	20 91 97 01 	lds	r18, 0x0197
    1ad6:	30 91 98 01 	lds	r19, 0x0198
    1ada:	80 91 93 01 	lds	r24, 0x0193
    1ade:	90 91 94 01 	lds	r25, 0x0194
    1ae2:	28 17       	cp	r18, r24
    1ae4:	39 07       	cpc	r19, r25
    1ae6:	a1 f5       	brne	.+104    	; 0x1b50 <DELAY_NonBlockHelper+0xb6>
		{
			TIMER0_COMPCallBack();
    1ae8:	e0 91 8c 01 	lds	r30, 0x018C
    1aec:	f0 91 8d 01 	lds	r31, 0x018D
    1af0:	09 95       	icall
			counter_ms=0;
    1af2:	10 92 98 01 	sts	0x0198, r1
    1af6:	10 92 97 01 	sts	0x0197, r1
    1afa:	2a c0       	rjmp	.+84     	; 0x1b50 <DELAY_NonBlockHelper+0xb6>
		}
	}
	else if (Period==NON_PERIODIC)
    1afc:	80 91 95 01 	lds	r24, 0x0195
    1b00:	82 30       	cpi	r24, 0x02	; 2
    1b02:	31 f5       	brne	.+76     	; 0x1b50 <DELAY_NonBlockHelper+0xb6>
	{
		if(counter_us==4)
    1b04:	80 91 96 01 	lds	r24, 0x0196
    1b08:	84 30       	cpi	r24, 0x04	; 4
    1b0a:	59 f4       	brne	.+22     	; 0x1b22 <DELAY_NonBlockHelper+0x88>
		{
			counter_ms++;
    1b0c:	80 91 97 01 	lds	r24, 0x0197
    1b10:	90 91 98 01 	lds	r25, 0x0198
    1b14:	01 96       	adiw	r24, 0x01	; 1
    1b16:	90 93 98 01 	sts	0x0198, r25
    1b1a:	80 93 97 01 	sts	0x0197, r24
			counter_us=0;
    1b1e:	10 92 96 01 	sts	0x0196, r1
		}
		if(counter_ms==Copy_u8Time)
    1b22:	20 91 97 01 	lds	r18, 0x0197
    1b26:	30 91 98 01 	lds	r19, 0x0198
    1b2a:	80 91 93 01 	lds	r24, 0x0193
    1b2e:	90 91 94 01 	lds	r25, 0x0194
    1b32:	28 17       	cp	r18, r24
    1b34:	39 07       	cpc	r19, r25
    1b36:	61 f4       	brne	.+24     	; 0x1b50 <DELAY_NonBlockHelper+0xb6>
		{
			TIMER0_COMPCallBack();
    1b38:	e0 91 8c 01 	lds	r30, 0x018C
    1b3c:	f0 91 8d 01 	lds	r31, 0x018D
    1b40:	09 95       	icall
			counter_ms=0;
    1b42:	10 92 98 01 	sts	0x0198, r1
    1b46:	10 92 97 01 	sts	0x0197, r1
			TIMER0_COMPIntE(DISABLE);
    1b4a:	82 e0       	ldi	r24, 0x02	; 2
    1b4c:	0e 94 1c 10 	call	0x2038	; 0x2038 <TIMER0_COMPIntE>
		}
	}
}
    1b50:	cf 91       	pop	r28
    1b52:	df 91       	pop	r29
    1b54:	08 95       	ret

00001b56 <TIMER0_voidINIT>:

void TIMER0_voidINIT(u8 Copy_u8Mode,u8 Copy_u8Prescaler)
{
    1b56:	df 93       	push	r29
    1b58:	cf 93       	push	r28
    1b5a:	00 d0       	rcall	.+0      	; 0x1b5c <TIMER0_voidINIT+0x6>
    1b5c:	00 d0       	rcall	.+0      	; 0x1b5e <TIMER0_voidINIT+0x8>
    1b5e:	00 d0       	rcall	.+0      	; 0x1b60 <TIMER0_voidINIT+0xa>
    1b60:	cd b7       	in	r28, 0x3d	; 61
    1b62:	de b7       	in	r29, 0x3e	; 62
    1b64:	89 83       	std	Y+1, r24	; 0x01
    1b66:	6a 83       	std	Y+2, r22	; 0x02
	Mode=Copy_u8Mode;
    1b68:	89 81       	ldd	r24, Y+1	; 0x01
    1b6a:	80 93 92 01 	sts	0x0192, r24
	/*Select TIMER0 Mode
	 * ->Normal
	 * ->PWM
	 * ->CTC
	 * ->Fast_PWM */
	switch(Copy_u8Mode)
    1b6e:	89 81       	ldd	r24, Y+1	; 0x01
    1b70:	28 2f       	mov	r18, r24
    1b72:	30 e0       	ldi	r19, 0x00	; 0
    1b74:	3e 83       	std	Y+6, r19	; 0x06
    1b76:	2d 83       	std	Y+5, r18	; 0x05
    1b78:	8d 81       	ldd	r24, Y+5	; 0x05
    1b7a:	9e 81       	ldd	r25, Y+6	; 0x06
    1b7c:	82 30       	cpi	r24, 0x02	; 2
    1b7e:	91 05       	cpc	r25, r1
    1b80:	29 f1       	breq	.+74     	; 0x1bcc <TIMER0_voidINIT+0x76>
    1b82:	2d 81       	ldd	r18, Y+5	; 0x05
    1b84:	3e 81       	ldd	r19, Y+6	; 0x06
    1b86:	23 30       	cpi	r18, 0x03	; 3
    1b88:	31 05       	cpc	r19, r1
    1b8a:	34 f4       	brge	.+12     	; 0x1b98 <TIMER0_voidINIT+0x42>
    1b8c:	8d 81       	ldd	r24, Y+5	; 0x05
    1b8e:	9e 81       	ldd	r25, Y+6	; 0x06
    1b90:	81 30       	cpi	r24, 0x01	; 1
    1b92:	91 05       	cpc	r25, r1
    1b94:	61 f0       	breq	.+24     	; 0x1bae <TIMER0_voidINIT+0x58>
    1b96:	46 c0       	rjmp	.+140    	; 0x1c24 <TIMER0_voidINIT+0xce>
    1b98:	2d 81       	ldd	r18, Y+5	; 0x05
    1b9a:	3e 81       	ldd	r19, Y+6	; 0x06
    1b9c:	23 30       	cpi	r18, 0x03	; 3
    1b9e:	31 05       	cpc	r19, r1
    1ba0:	21 f1       	breq	.+72     	; 0x1bea <TIMER0_voidINIT+0x94>
    1ba2:	8d 81       	ldd	r24, Y+5	; 0x05
    1ba4:	9e 81       	ldd	r25, Y+6	; 0x06
    1ba6:	84 30       	cpi	r24, 0x04	; 4
    1ba8:	91 05       	cpc	r25, r1
    1baa:	71 f1       	breq	.+92     	; 0x1c08 <TIMER0_voidINIT+0xb2>
    1bac:	3b c0       	rjmp	.+118    	; 0x1c24 <TIMER0_voidINIT+0xce>
	{
	case NORMAL :
		CLR_BIT(TCCR0,TCCR0_WGM00);
    1bae:	a3 e5       	ldi	r26, 0x53	; 83
    1bb0:	b0 e0       	ldi	r27, 0x00	; 0
    1bb2:	e3 e5       	ldi	r30, 0x53	; 83
    1bb4:	f0 e0       	ldi	r31, 0x00	; 0
    1bb6:	80 81       	ld	r24, Z
    1bb8:	8f 7b       	andi	r24, 0xBF	; 191
    1bba:	8c 93       	st	X, r24
		CLR_BIT(TCCR0,TCCR0_WGM01);
    1bbc:	a3 e5       	ldi	r26, 0x53	; 83
    1bbe:	b0 e0       	ldi	r27, 0x00	; 0
    1bc0:	e3 e5       	ldi	r30, 0x53	; 83
    1bc2:	f0 e0       	ldi	r31, 0x00	; 0
    1bc4:	80 81       	ld	r24, Z
    1bc6:	87 7f       	andi	r24, 0xF7	; 247
    1bc8:	8c 93       	st	X, r24
    1bca:	2c c0       	rjmp	.+88     	; 0x1c24 <TIMER0_voidINIT+0xce>
		break;
	case PWM :
		SET_BIT(TCCR0,TCCR0_WGM00);
    1bcc:	a3 e5       	ldi	r26, 0x53	; 83
    1bce:	b0 e0       	ldi	r27, 0x00	; 0
    1bd0:	e3 e5       	ldi	r30, 0x53	; 83
    1bd2:	f0 e0       	ldi	r31, 0x00	; 0
    1bd4:	80 81       	ld	r24, Z
    1bd6:	80 64       	ori	r24, 0x40	; 64
    1bd8:	8c 93       	st	X, r24
		CLR_BIT(TCCR0,TCCR0_WGM01);
    1bda:	a3 e5       	ldi	r26, 0x53	; 83
    1bdc:	b0 e0       	ldi	r27, 0x00	; 0
    1bde:	e3 e5       	ldi	r30, 0x53	; 83
    1be0:	f0 e0       	ldi	r31, 0x00	; 0
    1be2:	80 81       	ld	r24, Z
    1be4:	87 7f       	andi	r24, 0xF7	; 247
    1be6:	8c 93       	st	X, r24
    1be8:	1d c0       	rjmp	.+58     	; 0x1c24 <TIMER0_voidINIT+0xce>
		break;
	case CTC :
		CLR_BIT(TCCR0,TCCR0_WGM00);
    1bea:	a3 e5       	ldi	r26, 0x53	; 83
    1bec:	b0 e0       	ldi	r27, 0x00	; 0
    1bee:	e3 e5       	ldi	r30, 0x53	; 83
    1bf0:	f0 e0       	ldi	r31, 0x00	; 0
    1bf2:	80 81       	ld	r24, Z
    1bf4:	8f 7b       	andi	r24, 0xBF	; 191
    1bf6:	8c 93       	st	X, r24
		SET_BIT(TCCR0,TCCR0_WGM01);
    1bf8:	a3 e5       	ldi	r26, 0x53	; 83
    1bfa:	b0 e0       	ldi	r27, 0x00	; 0
    1bfc:	e3 e5       	ldi	r30, 0x53	; 83
    1bfe:	f0 e0       	ldi	r31, 0x00	; 0
    1c00:	80 81       	ld	r24, Z
    1c02:	88 60       	ori	r24, 0x08	; 8
    1c04:	8c 93       	st	X, r24
    1c06:	0e c0       	rjmp	.+28     	; 0x1c24 <TIMER0_voidINIT+0xce>
		break;
	case FAST_PWM :
		SET_BIT(TCCR0,TCCR0_WGM00);
    1c08:	a3 e5       	ldi	r26, 0x53	; 83
    1c0a:	b0 e0       	ldi	r27, 0x00	; 0
    1c0c:	e3 e5       	ldi	r30, 0x53	; 83
    1c0e:	f0 e0       	ldi	r31, 0x00	; 0
    1c10:	80 81       	ld	r24, Z
    1c12:	80 64       	ori	r24, 0x40	; 64
    1c14:	8c 93       	st	X, r24
		SET_BIT(TCCR0,TCCR0_WGM01);
    1c16:	a3 e5       	ldi	r26, 0x53	; 83
    1c18:	b0 e0       	ldi	r27, 0x00	; 0
    1c1a:	e3 e5       	ldi	r30, 0x53	; 83
    1c1c:	f0 e0       	ldi	r31, 0x00	; 0
    1c1e:	80 81       	ld	r24, Z
    1c20:	88 60       	ori	r24, 0x08	; 8
    1c22:	8c 93       	st	X, r24
	 * ->DIV_64
	 * ->DIV_256
	 * ->DIV_1024
	 * ->EXT_T0_FALLING
	 * ->EXT_T0_RISING*/
	switch(Copy_u8Prescaler)
    1c24:	8a 81       	ldd	r24, Y+2	; 0x02
    1c26:	28 2f       	mov	r18, r24
    1c28:	30 e0       	ldi	r19, 0x00	; 0
    1c2a:	3c 83       	std	Y+4, r19	; 0x04
    1c2c:	2b 83       	std	Y+3, r18	; 0x03
    1c2e:	8b 81       	ldd	r24, Y+3	; 0x03
    1c30:	9c 81       	ldd	r25, Y+4	; 0x04
    1c32:	84 30       	cpi	r24, 0x04	; 4
    1c34:	91 05       	cpc	r25, r1
    1c36:	09 f4       	brne	.+2      	; 0x1c3a <TIMER0_voidINIT+0xe4>
    1c38:	71 c0       	rjmp	.+226    	; 0x1d1c <TIMER0_voidINIT+0x1c6>
    1c3a:	2b 81       	ldd	r18, Y+3	; 0x03
    1c3c:	3c 81       	ldd	r19, Y+4	; 0x04
    1c3e:	25 30       	cpi	r18, 0x05	; 5
    1c40:	31 05       	cpc	r19, r1
    1c42:	8c f4       	brge	.+34     	; 0x1c66 <TIMER0_voidINIT+0x110>
    1c44:	8b 81       	ldd	r24, Y+3	; 0x03
    1c46:	9c 81       	ldd	r25, Y+4	; 0x04
    1c48:	82 30       	cpi	r24, 0x02	; 2
    1c4a:	91 05       	cpc	r25, r1
    1c4c:	d9 f1       	breq	.+118    	; 0x1cc4 <TIMER0_voidINIT+0x16e>
    1c4e:	2b 81       	ldd	r18, Y+3	; 0x03
    1c50:	3c 81       	ldd	r19, Y+4	; 0x04
    1c52:	23 30       	cpi	r18, 0x03	; 3
    1c54:	31 05       	cpc	r19, r1
    1c56:	0c f0       	brlt	.+2      	; 0x1c5a <TIMER0_voidINIT+0x104>
    1c58:	4b c0       	rjmp	.+150    	; 0x1cf0 <TIMER0_voidINIT+0x19a>
    1c5a:	8b 81       	ldd	r24, Y+3	; 0x03
    1c5c:	9c 81       	ldd	r25, Y+4	; 0x04
    1c5e:	81 30       	cpi	r24, 0x01	; 1
    1c60:	91 05       	cpc	r25, r1
    1c62:	d1 f0       	breq	.+52     	; 0x1c98 <TIMER0_voidINIT+0x142>
    1c64:	c8 c0       	rjmp	.+400    	; 0x1df6 <TIMER0_voidINIT+0x2a0>
    1c66:	2b 81       	ldd	r18, Y+3	; 0x03
    1c68:	3c 81       	ldd	r19, Y+4	; 0x04
    1c6a:	26 30       	cpi	r18, 0x06	; 6
    1c6c:	31 05       	cpc	r19, r1
    1c6e:	09 f4       	brne	.+2      	; 0x1c72 <TIMER0_voidINIT+0x11c>
    1c70:	81 c0       	rjmp	.+258    	; 0x1d74 <TIMER0_voidINIT+0x21e>
    1c72:	8b 81       	ldd	r24, Y+3	; 0x03
    1c74:	9c 81       	ldd	r25, Y+4	; 0x04
    1c76:	86 30       	cpi	r24, 0x06	; 6
    1c78:	91 05       	cpc	r25, r1
    1c7a:	0c f4       	brge	.+2      	; 0x1c7e <TIMER0_voidINIT+0x128>
    1c7c:	65 c0       	rjmp	.+202    	; 0x1d48 <TIMER0_voidINIT+0x1f2>
    1c7e:	2b 81       	ldd	r18, Y+3	; 0x03
    1c80:	3c 81       	ldd	r19, Y+4	; 0x04
    1c82:	27 30       	cpi	r18, 0x07	; 7
    1c84:	31 05       	cpc	r19, r1
    1c86:	09 f4       	brne	.+2      	; 0x1c8a <TIMER0_voidINIT+0x134>
    1c88:	8b c0       	rjmp	.+278    	; 0x1da0 <TIMER0_voidINIT+0x24a>
    1c8a:	8b 81       	ldd	r24, Y+3	; 0x03
    1c8c:	9c 81       	ldd	r25, Y+4	; 0x04
    1c8e:	88 30       	cpi	r24, 0x08	; 8
    1c90:	91 05       	cpc	r25, r1
    1c92:	09 f4       	brne	.+2      	; 0x1c96 <TIMER0_voidINIT+0x140>
    1c94:	9b c0       	rjmp	.+310    	; 0x1dcc <TIMER0_voidINIT+0x276>
    1c96:	af c0       	rjmp	.+350    	; 0x1df6 <TIMER0_voidINIT+0x2a0>
	{
	case NO_CLOCK :
		CLR_BIT(TCCR0,TCCR0_CS00);
    1c98:	a3 e5       	ldi	r26, 0x53	; 83
    1c9a:	b0 e0       	ldi	r27, 0x00	; 0
    1c9c:	e3 e5       	ldi	r30, 0x53	; 83
    1c9e:	f0 e0       	ldi	r31, 0x00	; 0
    1ca0:	80 81       	ld	r24, Z
    1ca2:	8e 7f       	andi	r24, 0xFE	; 254
    1ca4:	8c 93       	st	X, r24
		CLR_BIT(TCCR0,TCCR0_CS01);
    1ca6:	a3 e5       	ldi	r26, 0x53	; 83
    1ca8:	b0 e0       	ldi	r27, 0x00	; 0
    1caa:	e3 e5       	ldi	r30, 0x53	; 83
    1cac:	f0 e0       	ldi	r31, 0x00	; 0
    1cae:	80 81       	ld	r24, Z
    1cb0:	8d 7f       	andi	r24, 0xFD	; 253
    1cb2:	8c 93       	st	X, r24
		CLR_BIT(TCCR0,TCCR0_CS02);
    1cb4:	a3 e5       	ldi	r26, 0x53	; 83
    1cb6:	b0 e0       	ldi	r27, 0x00	; 0
    1cb8:	e3 e5       	ldi	r30, 0x53	; 83
    1cba:	f0 e0       	ldi	r31, 0x00	; 0
    1cbc:	80 81       	ld	r24, Z
    1cbe:	8b 7f       	andi	r24, 0xFB	; 251
    1cc0:	8c 93       	st	X, r24
    1cc2:	99 c0       	rjmp	.+306    	; 0x1df6 <TIMER0_voidINIT+0x2a0>
		break;
	case DIV_1 :
		SET_BIT(TCCR0,TCCR0_CS00);
    1cc4:	a3 e5       	ldi	r26, 0x53	; 83
    1cc6:	b0 e0       	ldi	r27, 0x00	; 0
    1cc8:	e3 e5       	ldi	r30, 0x53	; 83
    1cca:	f0 e0       	ldi	r31, 0x00	; 0
    1ccc:	80 81       	ld	r24, Z
    1cce:	81 60       	ori	r24, 0x01	; 1
    1cd0:	8c 93       	st	X, r24
		CLR_BIT(TCCR0,TCCR0_CS01);
    1cd2:	a3 e5       	ldi	r26, 0x53	; 83
    1cd4:	b0 e0       	ldi	r27, 0x00	; 0
    1cd6:	e3 e5       	ldi	r30, 0x53	; 83
    1cd8:	f0 e0       	ldi	r31, 0x00	; 0
    1cda:	80 81       	ld	r24, Z
    1cdc:	8d 7f       	andi	r24, 0xFD	; 253
    1cde:	8c 93       	st	X, r24
		CLR_BIT(TCCR0,TCCR0_CS02);
    1ce0:	a3 e5       	ldi	r26, 0x53	; 83
    1ce2:	b0 e0       	ldi	r27, 0x00	; 0
    1ce4:	e3 e5       	ldi	r30, 0x53	; 83
    1ce6:	f0 e0       	ldi	r31, 0x00	; 0
    1ce8:	80 81       	ld	r24, Z
    1cea:	8b 7f       	andi	r24, 0xFB	; 251
    1cec:	8c 93       	st	X, r24
    1cee:	83 c0       	rjmp	.+262    	; 0x1df6 <TIMER0_voidINIT+0x2a0>
		break;
	case DIV_8 :
		CLR_BIT(TCCR0,TCCR0_CS00);
    1cf0:	a3 e5       	ldi	r26, 0x53	; 83
    1cf2:	b0 e0       	ldi	r27, 0x00	; 0
    1cf4:	e3 e5       	ldi	r30, 0x53	; 83
    1cf6:	f0 e0       	ldi	r31, 0x00	; 0
    1cf8:	80 81       	ld	r24, Z
    1cfa:	8e 7f       	andi	r24, 0xFE	; 254
    1cfc:	8c 93       	st	X, r24
		SET_BIT(TCCR0,TCCR0_CS01);
    1cfe:	a3 e5       	ldi	r26, 0x53	; 83
    1d00:	b0 e0       	ldi	r27, 0x00	; 0
    1d02:	e3 e5       	ldi	r30, 0x53	; 83
    1d04:	f0 e0       	ldi	r31, 0x00	; 0
    1d06:	80 81       	ld	r24, Z
    1d08:	82 60       	ori	r24, 0x02	; 2
    1d0a:	8c 93       	st	X, r24
		CLR_BIT(TCCR0,TCCR0_CS02);
    1d0c:	a3 e5       	ldi	r26, 0x53	; 83
    1d0e:	b0 e0       	ldi	r27, 0x00	; 0
    1d10:	e3 e5       	ldi	r30, 0x53	; 83
    1d12:	f0 e0       	ldi	r31, 0x00	; 0
    1d14:	80 81       	ld	r24, Z
    1d16:	8b 7f       	andi	r24, 0xFB	; 251
    1d18:	8c 93       	st	X, r24
    1d1a:	6d c0       	rjmp	.+218    	; 0x1df6 <TIMER0_voidINIT+0x2a0>
		break;
	case DIV_64 :
		SET_BIT(TCCR0,TCCR0_CS00);
    1d1c:	a3 e5       	ldi	r26, 0x53	; 83
    1d1e:	b0 e0       	ldi	r27, 0x00	; 0
    1d20:	e3 e5       	ldi	r30, 0x53	; 83
    1d22:	f0 e0       	ldi	r31, 0x00	; 0
    1d24:	80 81       	ld	r24, Z
    1d26:	81 60       	ori	r24, 0x01	; 1
    1d28:	8c 93       	st	X, r24
		SET_BIT(TCCR0,TCCR0_CS01);
    1d2a:	a3 e5       	ldi	r26, 0x53	; 83
    1d2c:	b0 e0       	ldi	r27, 0x00	; 0
    1d2e:	e3 e5       	ldi	r30, 0x53	; 83
    1d30:	f0 e0       	ldi	r31, 0x00	; 0
    1d32:	80 81       	ld	r24, Z
    1d34:	82 60       	ori	r24, 0x02	; 2
    1d36:	8c 93       	st	X, r24
		CLR_BIT(TCCR0,TCCR0_CS02);
    1d38:	a3 e5       	ldi	r26, 0x53	; 83
    1d3a:	b0 e0       	ldi	r27, 0x00	; 0
    1d3c:	e3 e5       	ldi	r30, 0x53	; 83
    1d3e:	f0 e0       	ldi	r31, 0x00	; 0
    1d40:	80 81       	ld	r24, Z
    1d42:	8b 7f       	andi	r24, 0xFB	; 251
    1d44:	8c 93       	st	X, r24
    1d46:	57 c0       	rjmp	.+174    	; 0x1df6 <TIMER0_voidINIT+0x2a0>
		break;
	case DIV_256 :
		CLR_BIT(TCCR0,TCCR0_CS00);
    1d48:	a3 e5       	ldi	r26, 0x53	; 83
    1d4a:	b0 e0       	ldi	r27, 0x00	; 0
    1d4c:	e3 e5       	ldi	r30, 0x53	; 83
    1d4e:	f0 e0       	ldi	r31, 0x00	; 0
    1d50:	80 81       	ld	r24, Z
    1d52:	8e 7f       	andi	r24, 0xFE	; 254
    1d54:	8c 93       	st	X, r24
		CLR_BIT(TCCR0,TCCR0_CS01);
    1d56:	a3 e5       	ldi	r26, 0x53	; 83
    1d58:	b0 e0       	ldi	r27, 0x00	; 0
    1d5a:	e3 e5       	ldi	r30, 0x53	; 83
    1d5c:	f0 e0       	ldi	r31, 0x00	; 0
    1d5e:	80 81       	ld	r24, Z
    1d60:	8d 7f       	andi	r24, 0xFD	; 253
    1d62:	8c 93       	st	X, r24
		SET_BIT(TCCR0,TCCR0_CS02);
    1d64:	a3 e5       	ldi	r26, 0x53	; 83
    1d66:	b0 e0       	ldi	r27, 0x00	; 0
    1d68:	e3 e5       	ldi	r30, 0x53	; 83
    1d6a:	f0 e0       	ldi	r31, 0x00	; 0
    1d6c:	80 81       	ld	r24, Z
    1d6e:	84 60       	ori	r24, 0x04	; 4
    1d70:	8c 93       	st	X, r24
    1d72:	41 c0       	rjmp	.+130    	; 0x1df6 <TIMER0_voidINIT+0x2a0>
		break;
	case DIV_1024 :
		SET_BIT(TCCR0,TCCR0_CS00);
    1d74:	a3 e5       	ldi	r26, 0x53	; 83
    1d76:	b0 e0       	ldi	r27, 0x00	; 0
    1d78:	e3 e5       	ldi	r30, 0x53	; 83
    1d7a:	f0 e0       	ldi	r31, 0x00	; 0
    1d7c:	80 81       	ld	r24, Z
    1d7e:	81 60       	ori	r24, 0x01	; 1
    1d80:	8c 93       	st	X, r24
		CLR_BIT(TCCR0,TCCR0_CS01);
    1d82:	a3 e5       	ldi	r26, 0x53	; 83
    1d84:	b0 e0       	ldi	r27, 0x00	; 0
    1d86:	e3 e5       	ldi	r30, 0x53	; 83
    1d88:	f0 e0       	ldi	r31, 0x00	; 0
    1d8a:	80 81       	ld	r24, Z
    1d8c:	8d 7f       	andi	r24, 0xFD	; 253
    1d8e:	8c 93       	st	X, r24
		SET_BIT(TCCR0,TCCR0_CS02);
    1d90:	a3 e5       	ldi	r26, 0x53	; 83
    1d92:	b0 e0       	ldi	r27, 0x00	; 0
    1d94:	e3 e5       	ldi	r30, 0x53	; 83
    1d96:	f0 e0       	ldi	r31, 0x00	; 0
    1d98:	80 81       	ld	r24, Z
    1d9a:	84 60       	ori	r24, 0x04	; 4
    1d9c:	8c 93       	st	X, r24
    1d9e:	2b c0       	rjmp	.+86     	; 0x1df6 <TIMER0_voidINIT+0x2a0>
		break;
	case EXT_T0_FALLING :
		CLR_BIT(TCCR0,TCCR0_CS00);
    1da0:	a3 e5       	ldi	r26, 0x53	; 83
    1da2:	b0 e0       	ldi	r27, 0x00	; 0
    1da4:	e3 e5       	ldi	r30, 0x53	; 83
    1da6:	f0 e0       	ldi	r31, 0x00	; 0
    1da8:	80 81       	ld	r24, Z
    1daa:	8e 7f       	andi	r24, 0xFE	; 254
    1dac:	8c 93       	st	X, r24
		SET_BIT(TCCR0,TCCR0_CS01);
    1dae:	a3 e5       	ldi	r26, 0x53	; 83
    1db0:	b0 e0       	ldi	r27, 0x00	; 0
    1db2:	e3 e5       	ldi	r30, 0x53	; 83
    1db4:	f0 e0       	ldi	r31, 0x00	; 0
    1db6:	80 81       	ld	r24, Z
    1db8:	82 60       	ori	r24, 0x02	; 2
    1dba:	8c 93       	st	X, r24
		SET_BIT(TCCR0,TCCR0_CS02);
    1dbc:	a3 e5       	ldi	r26, 0x53	; 83
    1dbe:	b0 e0       	ldi	r27, 0x00	; 0
    1dc0:	e3 e5       	ldi	r30, 0x53	; 83
    1dc2:	f0 e0       	ldi	r31, 0x00	; 0
    1dc4:	80 81       	ld	r24, Z
    1dc6:	84 60       	ori	r24, 0x04	; 4
    1dc8:	8c 93       	st	X, r24
    1dca:	15 c0       	rjmp	.+42     	; 0x1df6 <TIMER0_voidINIT+0x2a0>
		break;
	case EXT_T0_RISING :
		SET_BIT(TCCR0,TCCR0_CS00);
    1dcc:	a3 e5       	ldi	r26, 0x53	; 83
    1dce:	b0 e0       	ldi	r27, 0x00	; 0
    1dd0:	e3 e5       	ldi	r30, 0x53	; 83
    1dd2:	f0 e0       	ldi	r31, 0x00	; 0
    1dd4:	80 81       	ld	r24, Z
    1dd6:	81 60       	ori	r24, 0x01	; 1
    1dd8:	8c 93       	st	X, r24
		SET_BIT(TCCR0,TCCR0_CS01);
    1dda:	a3 e5       	ldi	r26, 0x53	; 83
    1ddc:	b0 e0       	ldi	r27, 0x00	; 0
    1dde:	e3 e5       	ldi	r30, 0x53	; 83
    1de0:	f0 e0       	ldi	r31, 0x00	; 0
    1de2:	80 81       	ld	r24, Z
    1de4:	82 60       	ori	r24, 0x02	; 2
    1de6:	8c 93       	st	X, r24
		SET_BIT(TCCR0,TCCR0_CS02);
    1de8:	a3 e5       	ldi	r26, 0x53	; 83
    1dea:	b0 e0       	ldi	r27, 0x00	; 0
    1dec:	e3 e5       	ldi	r30, 0x53	; 83
    1dee:	f0 e0       	ldi	r31, 0x00	; 0
    1df0:	80 81       	ld	r24, Z
    1df2:	84 60       	ori	r24, 0x04	; 4
    1df4:	8c 93       	st	X, r24
		break;
	default:
		break;
	}
}
    1df6:	26 96       	adiw	r28, 0x06	; 6
    1df8:	0f b6       	in	r0, 0x3f	; 63
    1dfa:	f8 94       	cli
    1dfc:	de bf       	out	0x3e, r29	; 62
    1dfe:	0f be       	out	0x3f, r0	; 63
    1e00:	cd bf       	out	0x3d, r28	; 61
    1e02:	cf 91       	pop	r28
    1e04:	df 91       	pop	r29
    1e06:	08 95       	ret

00001e08 <TIMER0_SetCOMPValue>:


void TIMER0_SetCOMPValue(u8 Value)
{
    1e08:	df 93       	push	r29
    1e0a:	cf 93       	push	r28
    1e0c:	0f 92       	push	r0
    1e0e:	cd b7       	in	r28, 0x3d	; 61
    1e10:	de b7       	in	r29, 0x3e	; 62
    1e12:	89 83       	std	Y+1, r24	; 0x01
	OCR0=Value;
    1e14:	ec e5       	ldi	r30, 0x5C	; 92
    1e16:	f0 e0       	ldi	r31, 0x00	; 0
    1e18:	89 81       	ldd	r24, Y+1	; 0x01
    1e1a:	80 83       	st	Z, r24
}
    1e1c:	0f 90       	pop	r0
    1e1e:	cf 91       	pop	r28
    1e20:	df 91       	pop	r29
    1e22:	08 95       	ret

00001e24 <TIMER0_SetOutMode>:

void TIMER0_SetOutMode(u8 Copy_u8OutMode)
{
    1e24:	df 93       	push	r29
    1e26:	cf 93       	push	r28
    1e28:	cd b7       	in	r28, 0x3d	; 61
    1e2a:	de b7       	in	r29, 0x3e	; 62
    1e2c:	29 97       	sbiw	r28, 0x09	; 9
    1e2e:	0f b6       	in	r0, 0x3f	; 63
    1e30:	f8 94       	cli
    1e32:	de bf       	out	0x3e, r29	; 62
    1e34:	0f be       	out	0x3f, r0	; 63
    1e36:	cd bf       	out	0x3d, r28	; 61
    1e38:	89 83       	std	Y+1, r24	; 0x01
	/*Copy_Mode ranges from 1-->4*/
	switch (Mode)
    1e3a:	80 91 92 01 	lds	r24, 0x0192
    1e3e:	28 2f       	mov	r18, r24
    1e40:	30 e0       	ldi	r19, 0x00	; 0
    1e42:	39 87       	std	Y+9, r19	; 0x09
    1e44:	28 87       	std	Y+8, r18	; 0x08
    1e46:	88 85       	ldd	r24, Y+8	; 0x08
    1e48:	99 85       	ldd	r25, Y+9	; 0x09
    1e4a:	82 30       	cpi	r24, 0x02	; 2
    1e4c:	91 05       	cpc	r25, r1
    1e4e:	09 f4       	brne	.+2      	; 0x1e52 <TIMER0_SetOutMode+0x2e>
    1e50:	68 c0       	rjmp	.+208    	; 0x1f22 <TIMER0_SetOutMode+0xfe>
    1e52:	28 85       	ldd	r18, Y+8	; 0x08
    1e54:	39 85       	ldd	r19, Y+9	; 0x09
    1e56:	24 30       	cpi	r18, 0x04	; 4
    1e58:	31 05       	cpc	r19, r1
    1e5a:	09 f4       	brne	.+2      	; 0x1e5e <TIMER0_SetOutMode+0x3a>
    1e5c:	a4 c0       	rjmp	.+328    	; 0x1fa6 <TIMER0_SetOutMode+0x182>
    1e5e:	88 85       	ldd	r24, Y+8	; 0x08
    1e60:	99 85       	ldd	r25, Y+9	; 0x09
    1e62:	81 30       	cpi	r24, 0x01	; 1
    1e64:	91 05       	cpc	r25, r1
    1e66:	09 f0       	breq	.+2      	; 0x1e6a <TIMER0_SetOutMode+0x46>
    1e68:	de c0       	rjmp	.+444    	; 0x2026 <TIMER0_SetOutMode+0x202>
	case NORMAL :
		/* 1-OC0 disconnected
		 * 2-Toggle OC0 on Compare
		 * 3-Clear OC0 on Compare
		 * 4-Set OC0 on Compare*/
		switch(Copy_u8OutMode)
    1e6a:	89 81       	ldd	r24, Y+1	; 0x01
    1e6c:	28 2f       	mov	r18, r24
    1e6e:	30 e0       	ldi	r19, 0x00	; 0
    1e70:	3f 83       	std	Y+7, r19	; 0x07
    1e72:	2e 83       	std	Y+6, r18	; 0x06
    1e74:	8e 81       	ldd	r24, Y+6	; 0x06
    1e76:	9f 81       	ldd	r25, Y+7	; 0x07
    1e78:	82 30       	cpi	r24, 0x02	; 2
    1e7a:	91 05       	cpc	r25, r1
    1e7c:	29 f1       	breq	.+74     	; 0x1ec8 <TIMER0_SetOutMode+0xa4>
    1e7e:	2e 81       	ldd	r18, Y+6	; 0x06
    1e80:	3f 81       	ldd	r19, Y+7	; 0x07
    1e82:	23 30       	cpi	r18, 0x03	; 3
    1e84:	31 05       	cpc	r19, r1
    1e86:	34 f4       	brge	.+12     	; 0x1e94 <TIMER0_SetOutMode+0x70>
    1e88:	8e 81       	ldd	r24, Y+6	; 0x06
    1e8a:	9f 81       	ldd	r25, Y+7	; 0x07
    1e8c:	81 30       	cpi	r24, 0x01	; 1
    1e8e:	91 05       	cpc	r25, r1
    1e90:	61 f0       	breq	.+24     	; 0x1eaa <TIMER0_SetOutMode+0x86>
    1e92:	c9 c0       	rjmp	.+402    	; 0x2026 <TIMER0_SetOutMode+0x202>
    1e94:	2e 81       	ldd	r18, Y+6	; 0x06
    1e96:	3f 81       	ldd	r19, Y+7	; 0x07
    1e98:	23 30       	cpi	r18, 0x03	; 3
    1e9a:	31 05       	cpc	r19, r1
    1e9c:	21 f1       	breq	.+72     	; 0x1ee6 <TIMER0_SetOutMode+0xc2>
    1e9e:	8e 81       	ldd	r24, Y+6	; 0x06
    1ea0:	9f 81       	ldd	r25, Y+7	; 0x07
    1ea2:	84 30       	cpi	r24, 0x04	; 4
    1ea4:	91 05       	cpc	r25, r1
    1ea6:	71 f1       	breq	.+92     	; 0x1f04 <TIMER0_SetOutMode+0xe0>
    1ea8:	be c0       	rjmp	.+380    	; 0x2026 <TIMER0_SetOutMode+0x202>
		{
		case DISC:
			CLR_BIT(TCCR0,TCCR0_COM00);
    1eaa:	a3 e5       	ldi	r26, 0x53	; 83
    1eac:	b0 e0       	ldi	r27, 0x00	; 0
    1eae:	e3 e5       	ldi	r30, 0x53	; 83
    1eb0:	f0 e0       	ldi	r31, 0x00	; 0
    1eb2:	80 81       	ld	r24, Z
    1eb4:	8f 7e       	andi	r24, 0xEF	; 239
    1eb6:	8c 93       	st	X, r24
			CLR_BIT(TCCR0,TCCR0_COM01);
    1eb8:	a3 e5       	ldi	r26, 0x53	; 83
    1eba:	b0 e0       	ldi	r27, 0x00	; 0
    1ebc:	e3 e5       	ldi	r30, 0x53	; 83
    1ebe:	f0 e0       	ldi	r31, 0x00	; 0
    1ec0:	80 81       	ld	r24, Z
    1ec2:	8f 7d       	andi	r24, 0xDF	; 223
    1ec4:	8c 93       	st	X, r24
    1ec6:	af c0       	rjmp	.+350    	; 0x2026 <TIMER0_SetOutMode+0x202>
			break;
		case TOGGLE:
			SET_BIT(TCCR0,TCCR0_COM00);
    1ec8:	a3 e5       	ldi	r26, 0x53	; 83
    1eca:	b0 e0       	ldi	r27, 0x00	; 0
    1ecc:	e3 e5       	ldi	r30, 0x53	; 83
    1ece:	f0 e0       	ldi	r31, 0x00	; 0
    1ed0:	80 81       	ld	r24, Z
    1ed2:	80 61       	ori	r24, 0x10	; 16
    1ed4:	8c 93       	st	X, r24
			CLR_BIT(TCCR0,TCCR0_COM01);
    1ed6:	a3 e5       	ldi	r26, 0x53	; 83
    1ed8:	b0 e0       	ldi	r27, 0x00	; 0
    1eda:	e3 e5       	ldi	r30, 0x53	; 83
    1edc:	f0 e0       	ldi	r31, 0x00	; 0
    1ede:	80 81       	ld	r24, Z
    1ee0:	8f 7d       	andi	r24, 0xDF	; 223
    1ee2:	8c 93       	st	X, r24
    1ee4:	a0 c0       	rjmp	.+320    	; 0x2026 <TIMER0_SetOutMode+0x202>
			break;
		case CLEAR:
			CLR_BIT(TCCR0,TCCR0_COM00);
    1ee6:	a3 e5       	ldi	r26, 0x53	; 83
    1ee8:	b0 e0       	ldi	r27, 0x00	; 0
    1eea:	e3 e5       	ldi	r30, 0x53	; 83
    1eec:	f0 e0       	ldi	r31, 0x00	; 0
    1eee:	80 81       	ld	r24, Z
    1ef0:	8f 7e       	andi	r24, 0xEF	; 239
    1ef2:	8c 93       	st	X, r24
			SET_BIT(TCCR0,TCCR0_COM01);
    1ef4:	a3 e5       	ldi	r26, 0x53	; 83
    1ef6:	b0 e0       	ldi	r27, 0x00	; 0
    1ef8:	e3 e5       	ldi	r30, 0x53	; 83
    1efa:	f0 e0       	ldi	r31, 0x00	; 0
    1efc:	80 81       	ld	r24, Z
    1efe:	80 62       	ori	r24, 0x20	; 32
    1f00:	8c 93       	st	X, r24
    1f02:	91 c0       	rjmp	.+290    	; 0x2026 <TIMER0_SetOutMode+0x202>
			break;
		case SET:
			SET_BIT(TCCR0,TCCR0_COM00);
    1f04:	a3 e5       	ldi	r26, 0x53	; 83
    1f06:	b0 e0       	ldi	r27, 0x00	; 0
    1f08:	e3 e5       	ldi	r30, 0x53	; 83
    1f0a:	f0 e0       	ldi	r31, 0x00	; 0
    1f0c:	80 81       	ld	r24, Z
    1f0e:	80 61       	ori	r24, 0x10	; 16
    1f10:	8c 93       	st	X, r24
			SET_BIT(TCCR0,TCCR0_COM01);
    1f12:	a3 e5       	ldi	r26, 0x53	; 83
    1f14:	b0 e0       	ldi	r27, 0x00	; 0
    1f16:	e3 e5       	ldi	r30, 0x53	; 83
    1f18:	f0 e0       	ldi	r31, 0x00	; 0
    1f1a:	80 81       	ld	r24, Z
    1f1c:	80 62       	ori	r24, 0x20	; 32
    1f1e:	8c 93       	st	X, r24
    1f20:	82 c0       	rjmp	.+260    	; 0x2026 <TIMER0_SetOutMode+0x202>
		case PWM :
			/* 1-OC0 DISCONNECTED
			 * 2-RESERVED
			 * 3-Clear OC0 on compare when UP-Counting && Set OC0 on compare when DOWN-COUNTING
			 * 4-Set OC0 on compare when UP-Counting && Clear OC0 on compare when DOWN-COUNTING*/
			switch(Copy_u8OutMode)
    1f22:	89 81       	ldd	r24, Y+1	; 0x01
    1f24:	28 2f       	mov	r18, r24
    1f26:	30 e0       	ldi	r19, 0x00	; 0
    1f28:	3d 83       	std	Y+5, r19	; 0x05
    1f2a:	2c 83       	std	Y+4, r18	; 0x04
    1f2c:	8c 81       	ldd	r24, Y+4	; 0x04
    1f2e:	9d 81       	ldd	r25, Y+5	; 0x05
    1f30:	83 30       	cpi	r24, 0x03	; 3
    1f32:	91 05       	cpc	r25, r1
    1f34:	d1 f0       	breq	.+52     	; 0x1f6a <TIMER0_SetOutMode+0x146>
    1f36:	2c 81       	ldd	r18, Y+4	; 0x04
    1f38:	3d 81       	ldd	r19, Y+5	; 0x05
    1f3a:	24 30       	cpi	r18, 0x04	; 4
    1f3c:	31 05       	cpc	r19, r1
    1f3e:	21 f1       	breq	.+72     	; 0x1f88 <TIMER0_SetOutMode+0x164>
    1f40:	8c 81       	ldd	r24, Y+4	; 0x04
    1f42:	9d 81       	ldd	r25, Y+5	; 0x05
    1f44:	81 30       	cpi	r24, 0x01	; 1
    1f46:	91 05       	cpc	r25, r1
    1f48:	09 f0       	breq	.+2      	; 0x1f4c <TIMER0_SetOutMode+0x128>
    1f4a:	6d c0       	rjmp	.+218    	; 0x2026 <TIMER0_SetOutMode+0x202>
			{
			case PWM_DISC :
				CLR_BIT(TCCR0,TCCR0_COM00);
    1f4c:	a3 e5       	ldi	r26, 0x53	; 83
    1f4e:	b0 e0       	ldi	r27, 0x00	; 0
    1f50:	e3 e5       	ldi	r30, 0x53	; 83
    1f52:	f0 e0       	ldi	r31, 0x00	; 0
    1f54:	80 81       	ld	r24, Z
    1f56:	8f 7e       	andi	r24, 0xEF	; 239
    1f58:	8c 93       	st	X, r24
				CLR_BIT(TCCR0,TCCR0_COM01);
    1f5a:	a3 e5       	ldi	r26, 0x53	; 83
    1f5c:	b0 e0       	ldi	r27, 0x00	; 0
    1f5e:	e3 e5       	ldi	r30, 0x53	; 83
    1f60:	f0 e0       	ldi	r31, 0x00	; 0
    1f62:	80 81       	ld	r24, Z
    1f64:	8f 7d       	andi	r24, 0xDF	; 223
    1f66:	8c 93       	st	X, r24
    1f68:	5e c0       	rjmp	.+188    	; 0x2026 <TIMER0_SetOutMode+0x202>
				break;
			case PWM_CLR_UP :
				CLR_BIT(TCCR0,TCCR0_COM00);
    1f6a:	a3 e5       	ldi	r26, 0x53	; 83
    1f6c:	b0 e0       	ldi	r27, 0x00	; 0
    1f6e:	e3 e5       	ldi	r30, 0x53	; 83
    1f70:	f0 e0       	ldi	r31, 0x00	; 0
    1f72:	80 81       	ld	r24, Z
    1f74:	8f 7e       	andi	r24, 0xEF	; 239
    1f76:	8c 93       	st	X, r24
				SET_BIT(TCCR0,TCCR0_COM01);
    1f78:	a3 e5       	ldi	r26, 0x53	; 83
    1f7a:	b0 e0       	ldi	r27, 0x00	; 0
    1f7c:	e3 e5       	ldi	r30, 0x53	; 83
    1f7e:	f0 e0       	ldi	r31, 0x00	; 0
    1f80:	80 81       	ld	r24, Z
    1f82:	80 62       	ori	r24, 0x20	; 32
    1f84:	8c 93       	st	X, r24
    1f86:	4f c0       	rjmp	.+158    	; 0x2026 <TIMER0_SetOutMode+0x202>
				break;
			case PWM_SET_UP :
				SET_BIT(TCCR0,TCCR0_COM00);
    1f88:	a3 e5       	ldi	r26, 0x53	; 83
    1f8a:	b0 e0       	ldi	r27, 0x00	; 0
    1f8c:	e3 e5       	ldi	r30, 0x53	; 83
    1f8e:	f0 e0       	ldi	r31, 0x00	; 0
    1f90:	80 81       	ld	r24, Z
    1f92:	80 61       	ori	r24, 0x10	; 16
    1f94:	8c 93       	st	X, r24
				SET_BIT(TCCR0,TCCR0_COM01);
    1f96:	a3 e5       	ldi	r26, 0x53	; 83
    1f98:	b0 e0       	ldi	r27, 0x00	; 0
    1f9a:	e3 e5       	ldi	r30, 0x53	; 83
    1f9c:	f0 e0       	ldi	r31, 0x00	; 0
    1f9e:	80 81       	ld	r24, Z
    1fa0:	80 62       	ori	r24, 0x20	; 32
    1fa2:	8c 93       	st	X, r24
    1fa4:	40 c0       	rjmp	.+128    	; 0x2026 <TIMER0_SetOutMode+0x202>
			case FAST_PWM :
				/* 1-OC0 DISCONNECTED
				 * 2-RESERVED
				 * 3-Clear on compare && Set on Top
				 * 4-Set on Compare && clear on Top*/
				switch(Copy_u8OutMode)
    1fa6:	89 81       	ldd	r24, Y+1	; 0x01
    1fa8:	28 2f       	mov	r18, r24
    1faa:	30 e0       	ldi	r19, 0x00	; 0
    1fac:	3b 83       	std	Y+3, r19	; 0x03
    1fae:	2a 83       	std	Y+2, r18	; 0x02
    1fb0:	8a 81       	ldd	r24, Y+2	; 0x02
    1fb2:	9b 81       	ldd	r25, Y+3	; 0x03
    1fb4:	83 30       	cpi	r24, 0x03	; 3
    1fb6:	91 05       	cpc	r25, r1
    1fb8:	c9 f0       	breq	.+50     	; 0x1fec <TIMER0_SetOutMode+0x1c8>
    1fba:	2a 81       	ldd	r18, Y+2	; 0x02
    1fbc:	3b 81       	ldd	r19, Y+3	; 0x03
    1fbe:	24 30       	cpi	r18, 0x04	; 4
    1fc0:	31 05       	cpc	r19, r1
    1fc2:	19 f1       	breq	.+70     	; 0x200a <TIMER0_SetOutMode+0x1e6>
    1fc4:	8a 81       	ldd	r24, Y+2	; 0x02
    1fc6:	9b 81       	ldd	r25, Y+3	; 0x03
    1fc8:	81 30       	cpi	r24, 0x01	; 1
    1fca:	91 05       	cpc	r25, r1
    1fcc:	61 f5       	brne	.+88     	; 0x2026 <TIMER0_SetOutMode+0x202>
				{
				case FAST_PWM_DISC :
					CLR_BIT(TCCR0,TCCR0_COM00);
    1fce:	a3 e5       	ldi	r26, 0x53	; 83
    1fd0:	b0 e0       	ldi	r27, 0x00	; 0
    1fd2:	e3 e5       	ldi	r30, 0x53	; 83
    1fd4:	f0 e0       	ldi	r31, 0x00	; 0
    1fd6:	80 81       	ld	r24, Z
    1fd8:	8f 7e       	andi	r24, 0xEF	; 239
    1fda:	8c 93       	st	X, r24
					CLR_BIT(TCCR0,TCCR0_COM01);
    1fdc:	a3 e5       	ldi	r26, 0x53	; 83
    1fde:	b0 e0       	ldi	r27, 0x00	; 0
    1fe0:	e3 e5       	ldi	r30, 0x53	; 83
    1fe2:	f0 e0       	ldi	r31, 0x00	; 0
    1fe4:	80 81       	ld	r24, Z
    1fe6:	8f 7d       	andi	r24, 0xDF	; 223
    1fe8:	8c 93       	st	X, r24
    1fea:	1d c0       	rjmp	.+58     	; 0x2026 <TIMER0_SetOutMode+0x202>
					break;
				case FAST_PWM_CLR_COMP :
					CLR_BIT(TCCR0,TCCR0_COM00);
    1fec:	a3 e5       	ldi	r26, 0x53	; 83
    1fee:	b0 e0       	ldi	r27, 0x00	; 0
    1ff0:	e3 e5       	ldi	r30, 0x53	; 83
    1ff2:	f0 e0       	ldi	r31, 0x00	; 0
    1ff4:	80 81       	ld	r24, Z
    1ff6:	8f 7e       	andi	r24, 0xEF	; 239
    1ff8:	8c 93       	st	X, r24
					SET_BIT(TCCR0,TCCR0_COM01);
    1ffa:	a3 e5       	ldi	r26, 0x53	; 83
    1ffc:	b0 e0       	ldi	r27, 0x00	; 0
    1ffe:	e3 e5       	ldi	r30, 0x53	; 83
    2000:	f0 e0       	ldi	r31, 0x00	; 0
    2002:	80 81       	ld	r24, Z
    2004:	80 62       	ori	r24, 0x20	; 32
    2006:	8c 93       	st	X, r24
    2008:	0e c0       	rjmp	.+28     	; 0x2026 <TIMER0_SetOutMode+0x202>
					break;
				case FAST_PWM_SET_COMP :
					SET_BIT(TCCR0,TCCR0_COM00);
    200a:	a3 e5       	ldi	r26, 0x53	; 83
    200c:	b0 e0       	ldi	r27, 0x00	; 0
    200e:	e3 e5       	ldi	r30, 0x53	; 83
    2010:	f0 e0       	ldi	r31, 0x00	; 0
    2012:	80 81       	ld	r24, Z
    2014:	80 61       	ori	r24, 0x10	; 16
    2016:	8c 93       	st	X, r24
					SET_BIT(TCCR0,TCCR0_COM01);
    2018:	a3 e5       	ldi	r26, 0x53	; 83
    201a:	b0 e0       	ldi	r27, 0x00	; 0
    201c:	e3 e5       	ldi	r30, 0x53	; 83
    201e:	f0 e0       	ldi	r31, 0x00	; 0
    2020:	80 81       	ld	r24, Z
    2022:	80 62       	ori	r24, 0x20	; 32
    2024:	8c 93       	st	X, r24
				break;
				default:
					break;
	}

}
    2026:	29 96       	adiw	r28, 0x09	; 9
    2028:	0f b6       	in	r0, 0x3f	; 63
    202a:	f8 94       	cli
    202c:	de bf       	out	0x3e, r29	; 62
    202e:	0f be       	out	0x3f, r0	; 63
    2030:	cd bf       	out	0x3d, r28	; 61
    2032:	cf 91       	pop	r28
    2034:	df 91       	pop	r29
    2036:	08 95       	ret

00002038 <TIMER0_COMPIntE>:

void TIMER0_COMPIntE(u8 Copy_u8Enable)
{
    2038:	df 93       	push	r29
    203a:	cf 93       	push	r28
    203c:	00 d0       	rcall	.+0      	; 0x203e <TIMER0_COMPIntE+0x6>
    203e:	0f 92       	push	r0
    2040:	cd b7       	in	r28, 0x3d	; 61
    2042:	de b7       	in	r29, 0x3e	; 62
    2044:	89 83       	std	Y+1, r24	; 0x01
	switch (Copy_u8Enable)
    2046:	89 81       	ldd	r24, Y+1	; 0x01
    2048:	28 2f       	mov	r18, r24
    204a:	30 e0       	ldi	r19, 0x00	; 0
    204c:	3b 83       	std	Y+3, r19	; 0x03
    204e:	2a 83       	std	Y+2, r18	; 0x02
    2050:	8a 81       	ldd	r24, Y+2	; 0x02
    2052:	9b 81       	ldd	r25, Y+3	; 0x03
    2054:	81 30       	cpi	r24, 0x01	; 1
    2056:	91 05       	cpc	r25, r1
    2058:	31 f0       	breq	.+12     	; 0x2066 <TIMER0_COMPIntE+0x2e>
    205a:	2a 81       	ldd	r18, Y+2	; 0x02
    205c:	3b 81       	ldd	r19, Y+3	; 0x03
    205e:	22 30       	cpi	r18, 0x02	; 2
    2060:	31 05       	cpc	r19, r1
    2062:	49 f0       	breq	.+18     	; 0x2076 <TIMER0_COMPIntE+0x3e>
    2064:	0f c0       	rjmp	.+30     	; 0x2084 <TIMER0_COMPIntE+0x4c>
	{
	case ENABLE :
		SET_BIT(TIMSK,TIMSK_OCIE0);
    2066:	a9 e5       	ldi	r26, 0x59	; 89
    2068:	b0 e0       	ldi	r27, 0x00	; 0
    206a:	e9 e5       	ldi	r30, 0x59	; 89
    206c:	f0 e0       	ldi	r31, 0x00	; 0
    206e:	80 81       	ld	r24, Z
    2070:	82 60       	ori	r24, 0x02	; 2
    2072:	8c 93       	st	X, r24
    2074:	07 c0       	rjmp	.+14     	; 0x2084 <TIMER0_COMPIntE+0x4c>
		break;
	case DISABLE :
		CLR_BIT(TIMSK,TIMSK_OCIE0);
    2076:	a9 e5       	ldi	r26, 0x59	; 89
    2078:	b0 e0       	ldi	r27, 0x00	; 0
    207a:	e9 e5       	ldi	r30, 0x59	; 89
    207c:	f0 e0       	ldi	r31, 0x00	; 0
    207e:	80 81       	ld	r24, Z
    2080:	8d 7f       	andi	r24, 0xFD	; 253
    2082:	8c 93       	st	X, r24
		break;
	default:
		break;
	}
}
    2084:	0f 90       	pop	r0
    2086:	0f 90       	pop	r0
    2088:	0f 90       	pop	r0
    208a:	cf 91       	pop	r28
    208c:	df 91       	pop	r29
    208e:	08 95       	ret

00002090 <TIMER0_OVFIntE>:

void TIMER0_OVFIntE(u8 Copy_u8Enable)
{
    2090:	df 93       	push	r29
    2092:	cf 93       	push	r28
    2094:	00 d0       	rcall	.+0      	; 0x2096 <TIMER0_OVFIntE+0x6>
    2096:	0f 92       	push	r0
    2098:	cd b7       	in	r28, 0x3d	; 61
    209a:	de b7       	in	r29, 0x3e	; 62
    209c:	89 83       	std	Y+1, r24	; 0x01
	switch (Copy_u8Enable)
    209e:	89 81       	ldd	r24, Y+1	; 0x01
    20a0:	28 2f       	mov	r18, r24
    20a2:	30 e0       	ldi	r19, 0x00	; 0
    20a4:	3b 83       	std	Y+3, r19	; 0x03
    20a6:	2a 83       	std	Y+2, r18	; 0x02
    20a8:	8a 81       	ldd	r24, Y+2	; 0x02
    20aa:	9b 81       	ldd	r25, Y+3	; 0x03
    20ac:	81 30       	cpi	r24, 0x01	; 1
    20ae:	91 05       	cpc	r25, r1
    20b0:	31 f0       	breq	.+12     	; 0x20be <TIMER0_OVFIntE+0x2e>
    20b2:	2a 81       	ldd	r18, Y+2	; 0x02
    20b4:	3b 81       	ldd	r19, Y+3	; 0x03
    20b6:	22 30       	cpi	r18, 0x02	; 2
    20b8:	31 05       	cpc	r19, r1
    20ba:	49 f0       	breq	.+18     	; 0x20ce <TIMER0_OVFIntE+0x3e>
    20bc:	0f c0       	rjmp	.+30     	; 0x20dc <TIMER0_OVFIntE+0x4c>
	{
	case ENABLE :
		SET_BIT(TIMSK,TIMSK_TOIE0);
    20be:	a9 e5       	ldi	r26, 0x59	; 89
    20c0:	b0 e0       	ldi	r27, 0x00	; 0
    20c2:	e9 e5       	ldi	r30, 0x59	; 89
    20c4:	f0 e0       	ldi	r31, 0x00	; 0
    20c6:	80 81       	ld	r24, Z
    20c8:	81 60       	ori	r24, 0x01	; 1
    20ca:	8c 93       	st	X, r24
    20cc:	07 c0       	rjmp	.+14     	; 0x20dc <TIMER0_OVFIntE+0x4c>
		break;
	case DISABLE :
		CLR_BIT(TIMSK,TIMSK_TOIE0);
    20ce:	a9 e5       	ldi	r26, 0x59	; 89
    20d0:	b0 e0       	ldi	r27, 0x00	; 0
    20d2:	e9 e5       	ldi	r30, 0x59	; 89
    20d4:	f0 e0       	ldi	r31, 0x00	; 0
    20d6:	80 81       	ld	r24, Z
    20d8:	8e 7f       	andi	r24, 0xFE	; 254
    20da:	8c 93       	st	X, r24
		break;
	default:
		break;
	}
}
    20dc:	0f 90       	pop	r0
    20de:	0f 90       	pop	r0
    20e0:	0f 90       	pop	r0
    20e2:	cf 91       	pop	r28
    20e4:	df 91       	pop	r29
    20e6:	08 95       	ret

000020e8 <TIMER0_u8COMPCallBackFunc>:

u8 TIMER0_u8COMPCallBackFunc(void(*pvNotfication)(void))
{
    20e8:	df 93       	push	r29
    20ea:	cf 93       	push	r28
    20ec:	00 d0       	rcall	.+0      	; 0x20ee <TIMER0_u8COMPCallBackFunc+0x6>
    20ee:	0f 92       	push	r0
    20f0:	cd b7       	in	r28, 0x3d	; 61
    20f2:	de b7       	in	r29, 0x3e	; 62
    20f4:	9b 83       	std	Y+3, r25	; 0x03
    20f6:	8a 83       	std	Y+2, r24	; 0x02
	u8 Local_u8ErrorStatus=OK;
    20f8:	19 82       	std	Y+1, r1	; 0x01
	if(pvNotfication!=NULL)
    20fa:	8a 81       	ldd	r24, Y+2	; 0x02
    20fc:	9b 81       	ldd	r25, Y+3	; 0x03
    20fe:	00 97       	sbiw	r24, 0x00	; 0
    2100:	39 f0       	breq	.+14     	; 0x2110 <TIMER0_u8COMPCallBackFunc+0x28>
	{
		TIMER0_COMPCallBack = pvNotfication;
    2102:	8a 81       	ldd	r24, Y+2	; 0x02
    2104:	9b 81       	ldd	r25, Y+3	; 0x03
    2106:	90 93 8d 01 	sts	0x018D, r25
    210a:	80 93 8c 01 	sts	0x018C, r24
    210e:	02 c0       	rjmp	.+4      	; 0x2114 <TIMER0_u8COMPCallBackFunc+0x2c>
	}
	else
	{
		Local_u8ErrorStatus = P_NULL;
    2110:	83 e0       	ldi	r24, 0x03	; 3
    2112:	89 83       	std	Y+1, r24	; 0x01
	}
	return Local_u8ErrorStatus;
    2114:	89 81       	ldd	r24, Y+1	; 0x01
}
    2116:	0f 90       	pop	r0
    2118:	0f 90       	pop	r0
    211a:	0f 90       	pop	r0
    211c:	cf 91       	pop	r28
    211e:	df 91       	pop	r29
    2120:	08 95       	ret

00002122 <TIMER0_u8OVFCallBackFunc>:

u8 TIMER0_u8OVFCallBackFunc(void(*pvNotfication)(void))
{
    2122:	df 93       	push	r29
    2124:	cf 93       	push	r28
    2126:	00 d0       	rcall	.+0      	; 0x2128 <TIMER0_u8OVFCallBackFunc+0x6>
    2128:	0f 92       	push	r0
    212a:	cd b7       	in	r28, 0x3d	; 61
    212c:	de b7       	in	r29, 0x3e	; 62
    212e:	9b 83       	std	Y+3, r25	; 0x03
    2130:	8a 83       	std	Y+2, r24	; 0x02
	u8 Local_u8ErrorStatus=OK;
    2132:	19 82       	std	Y+1, r1	; 0x01
	if(pvNotfication!=NULL)
    2134:	8a 81       	ldd	r24, Y+2	; 0x02
    2136:	9b 81       	ldd	r25, Y+3	; 0x03
    2138:	00 97       	sbiw	r24, 0x00	; 0
    213a:	39 f0       	breq	.+14     	; 0x214a <TIMER0_u8OVFCallBackFunc+0x28>
	{
		TIMER0_OVFCallBack = pvNotfication;
    213c:	8a 81       	ldd	r24, Y+2	; 0x02
    213e:	9b 81       	ldd	r25, Y+3	; 0x03
    2140:	90 93 8f 01 	sts	0x018F, r25
    2144:	80 93 8e 01 	sts	0x018E, r24
    2148:	02 c0       	rjmp	.+4      	; 0x214e <TIMER0_u8OVFCallBackFunc+0x2c>
	}
	else
	{
		Local_u8ErrorStatus = P_NULL;
    214a:	83 e0       	ldi	r24, 0x03	; 3
    214c:	89 83       	std	Y+1, r24	; 0x01
	}
	return Local_u8ErrorStatus;
    214e:	89 81       	ldd	r24, Y+1	; 0x01
}
    2150:	0f 90       	pop	r0
    2152:	0f 90       	pop	r0
    2154:	0f 90       	pop	r0
    2156:	cf 91       	pop	r28
    2158:	df 91       	pop	r29
    215a:	08 95       	ret

0000215c <DELYA_voidNonBlockDelay>:


void DELYA_voidNonBlockDelay(u16 Copy_ms, void(*pvFunc)(void) ,u8 Copy_u8Periodic)
{
    215c:	df 93       	push	r29
    215e:	cf 93       	push	r28
    2160:	00 d0       	rcall	.+0      	; 0x2162 <DELYA_voidNonBlockDelay+0x6>
    2162:	00 d0       	rcall	.+0      	; 0x2164 <DELYA_voidNonBlockDelay+0x8>
    2164:	0f 92       	push	r0
    2166:	cd b7       	in	r28, 0x3d	; 61
    2168:	de b7       	in	r29, 0x3e	; 62
    216a:	9a 83       	std	Y+2, r25	; 0x02
    216c:	89 83       	std	Y+1, r24	; 0x01
    216e:	7c 83       	std	Y+4, r23	; 0x04
    2170:	6b 83       	std	Y+3, r22	; 0x03
    2172:	4d 83       	std	Y+5, r20	; 0x05
	if(Init_F==NOT_INITIALIZED)
    2174:	80 91 8a 01 	lds	r24, 0x018A
    2178:	81 30       	cpi	r24, 0x01	; 1
    217a:	e1 f4       	brne	.+56     	; 0x21b4 <DELYA_voidNonBlockDelay+0x58>
	{
		TIMER0_voidINIT(CTC,DIV_8);
    217c:	83 e0       	ldi	r24, 0x03	; 3
    217e:	63 e0       	ldi	r22, 0x03	; 3
    2180:	0e 94 ab 0d 	call	0x1b56	; 0x1b56 <TIMER0_voidINIT>

		/*Set Comp value to 250 us*/
		TIMER0_SetCOMPValue(250);
    2184:	8a ef       	ldi	r24, 0xFA	; 250
    2186:	0e 94 04 0f 	call	0x1e08	; 0x1e08 <TIMER0_SetCOMPValue>

		/*Enable COMP INT*/
		TIMER0_COMPIntE(ENABLE);
    218a:	81 e0       	ldi	r24, 0x01	; 1
    218c:	0e 94 1c 10 	call	0x2038	; 0x2038 <TIMER0_COMPIntE>

		Period=Copy_u8Periodic;
    2190:	8d 81       	ldd	r24, Y+5	; 0x05
    2192:	80 93 95 01 	sts	0x0195, r24
		Copy_u8Time=Copy_ms;
    2196:	89 81       	ldd	r24, Y+1	; 0x01
    2198:	9a 81       	ldd	r25, Y+2	; 0x02
    219a:	90 93 94 01 	sts	0x0194, r25
    219e:	80 93 93 01 	sts	0x0193, r24
		TIMER0_COMPCallBack=pvFunc;
    21a2:	8b 81       	ldd	r24, Y+3	; 0x03
    21a4:	9c 81       	ldd	r25, Y+4	; 0x04
    21a6:	90 93 8d 01 	sts	0x018D, r25
    21aa:	80 93 8c 01 	sts	0x018C, r24

		Init_F=INITIALIZED;
    21ae:	82 e0       	ldi	r24, 0x02	; 2
    21b0:	80 93 8a 01 	sts	0x018A, r24
	}
	TIMER0_u8COMPCallBackFunc(&DELAY_NonBlockHelper);
    21b4:	8d e4       	ldi	r24, 0x4D	; 77
    21b6:	9d e0       	ldi	r25, 0x0D	; 13
    21b8:	0e 94 74 10 	call	0x20e8	; 0x20e8 <TIMER0_u8COMPCallBackFunc>
}
    21bc:	0f 90       	pop	r0
    21be:	0f 90       	pop	r0
    21c0:	0f 90       	pop	r0
    21c2:	0f 90       	pop	r0
    21c4:	0f 90       	pop	r0
    21c6:	cf 91       	pop	r28
    21c8:	df 91       	pop	r29
    21ca:	08 95       	ret

000021cc <TIMER1_voidInit>:

void TIMER1_voidInit(void)
{
    21cc:	df 93       	push	r29
    21ce:	cf 93       	push	r28
    21d0:	cd b7       	in	r28, 0x3d	; 61
    21d2:	de b7       	in	r29, 0x3e	; 62
	CLR_BIT(TCCR1A,TCCR1A_COM1A0);
	SET_BIT(TCCR1A,TCCR1A_COM1A1);*/


	/*Select NORMAL mode*/
	CLR_BIT(TCCR1A,TCCR1A_WGM10);
    21d4:	af e4       	ldi	r26, 0x4F	; 79
    21d6:	b0 e0       	ldi	r27, 0x00	; 0
    21d8:	ef e4       	ldi	r30, 0x4F	; 79
    21da:	f0 e0       	ldi	r31, 0x00	; 0
    21dc:	80 81       	ld	r24, Z
    21de:	8e 7f       	andi	r24, 0xFE	; 254
    21e0:	8c 93       	st	X, r24
	CLR_BIT(TCCR1A,TCCR1A_WGM11);
    21e2:	af e4       	ldi	r26, 0x4F	; 79
    21e4:	b0 e0       	ldi	r27, 0x00	; 0
    21e6:	ef e4       	ldi	r30, 0x4F	; 79
    21e8:	f0 e0       	ldi	r31, 0x00	; 0
    21ea:	80 81       	ld	r24, Z
    21ec:	8d 7f       	andi	r24, 0xFD	; 253
    21ee:	8c 93       	st	X, r24
	CLR_BIT(TCCR1B,TCCR1B_WGM12);
    21f0:	ae e4       	ldi	r26, 0x4E	; 78
    21f2:	b0 e0       	ldi	r27, 0x00	; 0
    21f4:	ee e4       	ldi	r30, 0x4E	; 78
    21f6:	f0 e0       	ldi	r31, 0x00	; 0
    21f8:	80 81       	ld	r24, Z
    21fa:	87 7f       	andi	r24, 0xF7	; 247
    21fc:	8c 93       	st	X, r24
	CLR_BIT(TCCR1B,TCCR1B_WGM13);
    21fe:	ae e4       	ldi	r26, 0x4E	; 78
    2200:	b0 e0       	ldi	r27, 0x00	; 0
    2202:	ee e4       	ldi	r30, 0x4E	; 78
    2204:	f0 e0       	ldi	r31, 0x00	; 0
    2206:	80 81       	ld	r24, Z
    2208:	8f 7e       	andi	r24, 0xEF	; 239
    220a:	8c 93       	st	X, r24

	/*Set Prescaler DIV by 8*/
	SET_BIT(TCCR1B,TCCR1B_CS11);
    220c:	ae e4       	ldi	r26, 0x4E	; 78
    220e:	b0 e0       	ldi	r27, 0x00	; 0
    2210:	ee e4       	ldi	r30, 0x4E	; 78
    2212:	f0 e0       	ldi	r31, 0x00	; 0
    2214:	80 81       	ld	r24, Z
    2216:	82 60       	ori	r24, 0x02	; 2
    2218:	8c 93       	st	X, r24
	CLR_BIT(TCCR1B,TCCR1B_CS10);
    221a:	ae e4       	ldi	r26, 0x4E	; 78
    221c:	b0 e0       	ldi	r27, 0x00	; 0
    221e:	ee e4       	ldi	r30, 0x4E	; 78
    2220:	f0 e0       	ldi	r31, 0x00	; 0
    2222:	80 81       	ld	r24, Z
    2224:	8e 7f       	andi	r24, 0xFE	; 254
    2226:	8c 93       	st	X, r24
	CLR_BIT(TCCR1B,TCCR1B_CS12);
    2228:	ae e4       	ldi	r26, 0x4E	; 78
    222a:	b0 e0       	ldi	r27, 0x00	; 0
    222c:	ee e4       	ldi	r30, 0x4E	; 78
    222e:	f0 e0       	ldi	r31, 0x00	; 0
    2230:	80 81       	ld	r24, Z
    2232:	8b 7f       	andi	r24, 0xFB	; 251
    2234:	8c 93       	st	X, r24
}
    2236:	cf 91       	pop	r28
    2238:	df 91       	pop	r29
    223a:	08 95       	ret

0000223c <TIMER1_TopValue>:


void TIMER1_TopValue(u16 Value)
{
    223c:	df 93       	push	r29
    223e:	cf 93       	push	r28
    2240:	00 d0       	rcall	.+0      	; 0x2242 <TIMER1_TopValue+0x6>
    2242:	cd b7       	in	r28, 0x3d	; 61
    2244:	de b7       	in	r29, 0x3e	; 62
    2246:	9a 83       	std	Y+2, r25	; 0x02
    2248:	89 83       	std	Y+1, r24	; 0x01
	ICR1=Value;
    224a:	e6 e4       	ldi	r30, 0x46	; 70
    224c:	f0 e0       	ldi	r31, 0x00	; 0
    224e:	89 81       	ldd	r24, Y+1	; 0x01
    2250:	9a 81       	ldd	r25, Y+2	; 0x02
    2252:	91 83       	std	Z+1, r25	; 0x01
    2254:	80 83       	st	Z, r24
}
    2256:	0f 90       	pop	r0
    2258:	0f 90       	pop	r0
    225a:	cf 91       	pop	r28
    225c:	df 91       	pop	r29
    225e:	08 95       	ret

00002260 <TIMER1_channelACOMPValue>:

void TIMER1_channelACOMPValue(u16 Value)
{
    2260:	df 93       	push	r29
    2262:	cf 93       	push	r28
    2264:	00 d0       	rcall	.+0      	; 0x2266 <TIMER1_channelACOMPValue+0x6>
    2266:	cd b7       	in	r28, 0x3d	; 61
    2268:	de b7       	in	r29, 0x3e	; 62
    226a:	9a 83       	std	Y+2, r25	; 0x02
    226c:	89 83       	std	Y+1, r24	; 0x01
	OCR1A=Value;
    226e:	ea e4       	ldi	r30, 0x4A	; 74
    2270:	f0 e0       	ldi	r31, 0x00	; 0
    2272:	89 81       	ldd	r24, Y+1	; 0x01
    2274:	9a 81       	ldd	r25, Y+2	; 0x02
    2276:	91 83       	std	Z+1, r25	; 0x01
    2278:	80 83       	st	Z, r24
}
    227a:	0f 90       	pop	r0
    227c:	0f 90       	pop	r0
    227e:	cf 91       	pop	r28
    2280:	df 91       	pop	r29
    2282:	08 95       	ret

00002284 <TIMER1_SetChannelReading>:

void TIMER1_SetChannelReading(u16 Value)
{
    2284:	df 93       	push	r29
    2286:	cf 93       	push	r28
    2288:	00 d0       	rcall	.+0      	; 0x228a <TIMER1_SetChannelReading+0x6>
    228a:	cd b7       	in	r28, 0x3d	; 61
    228c:	de b7       	in	r29, 0x3e	; 62
    228e:	9a 83       	std	Y+2, r25	; 0x02
    2290:	89 83       	std	Y+1, r24	; 0x01
	TCNT1=Value;
    2292:	ec e4       	ldi	r30, 0x4C	; 76
    2294:	f0 e0       	ldi	r31, 0x00	; 0
    2296:	89 81       	ldd	r24, Y+1	; 0x01
    2298:	9a 81       	ldd	r25, Y+2	; 0x02
    229a:	91 83       	std	Z+1, r25	; 0x01
    229c:	80 83       	st	Z, r24
}
    229e:	0f 90       	pop	r0
    22a0:	0f 90       	pop	r0
    22a2:	cf 91       	pop	r28
    22a4:	df 91       	pop	r29
    22a6:	08 95       	ret

000022a8 <TIMER1_ReadChannelReading>:

u16 TIMER1_ReadChannelReading(void)
{
    22a8:	df 93       	push	r29
    22aa:	cf 93       	push	r28
    22ac:	cd b7       	in	r28, 0x3d	; 61
    22ae:	de b7       	in	r29, 0x3e	; 62
	return TCNT1;
    22b0:	ec e4       	ldi	r30, 0x4C	; 76
    22b2:	f0 e0       	ldi	r31, 0x00	; 0
    22b4:	80 81       	ld	r24, Z
    22b6:	91 81       	ldd	r25, Z+1	; 0x01
}
    22b8:	cf 91       	pop	r28
    22ba:	df 91       	pop	r29
    22bc:	08 95       	ret

000022be <ICU_voidInit>:

void ICU_voidInit(void)
{
    22be:	df 93       	push	r29
    22c0:	cf 93       	push	r28
    22c2:	cd b7       	in	r28, 0x3d	; 61
    22c4:	de b7       	in	r29, 0x3e	; 62
	/*Set Input Capture Edge Select to Rising Edge*/
	SET_BIT(TCCR1B,TCCR1B_ICES1);
    22c6:	ae e4       	ldi	r26, 0x4E	; 78
    22c8:	b0 e0       	ldi	r27, 0x00	; 0
    22ca:	ee e4       	ldi	r30, 0x4E	; 78
    22cc:	f0 e0       	ldi	r31, 0x00	; 0
    22ce:	80 81       	ld	r24, Z
    22d0:	80 64       	ori	r24, 0x40	; 64
    22d2:	8c 93       	st	X, r24

	/*Enable Input Capture Interrupt*/
	SET_BIT(TIMSK,TIMSK_TICIE1);
    22d4:	a9 e5       	ldi	r26, 0x59	; 89
    22d6:	b0 e0       	ldi	r27, 0x00	; 0
    22d8:	e9 e5       	ldi	r30, 0x59	; 89
    22da:	f0 e0       	ldi	r31, 0x00	; 0
    22dc:	80 81       	ld	r24, Z
    22de:	80 62       	ori	r24, 0x20	; 32
    22e0:	8c 93       	st	X, r24
}
    22e2:	cf 91       	pop	r28
    22e4:	df 91       	pop	r29
    22e6:	08 95       	ret

000022e8 <ICU_voidSetEdge>:


void ICU_voidSetEdge(u8 Edge)
{
    22e8:	df 93       	push	r29
    22ea:	cf 93       	push	r28
    22ec:	00 d0       	rcall	.+0      	; 0x22ee <ICU_voidSetEdge+0x6>
    22ee:	0f 92       	push	r0
    22f0:	cd b7       	in	r28, 0x3d	; 61
    22f2:	de b7       	in	r29, 0x3e	; 62
    22f4:	89 83       	std	Y+1, r24	; 0x01
	switch(Edge)
    22f6:	89 81       	ldd	r24, Y+1	; 0x01
    22f8:	28 2f       	mov	r18, r24
    22fa:	30 e0       	ldi	r19, 0x00	; 0
    22fc:	3b 83       	std	Y+3, r19	; 0x03
    22fe:	2a 83       	std	Y+2, r18	; 0x02
    2300:	8a 81       	ldd	r24, Y+2	; 0x02
    2302:	9b 81       	ldd	r25, Y+3	; 0x03
    2304:	81 30       	cpi	r24, 0x01	; 1
    2306:	91 05       	cpc	r25, r1
    2308:	31 f0       	breq	.+12     	; 0x2316 <ICU_voidSetEdge+0x2e>
    230a:	2a 81       	ldd	r18, Y+2	; 0x02
    230c:	3b 81       	ldd	r19, Y+3	; 0x03
    230e:	22 30       	cpi	r18, 0x02	; 2
    2310:	31 05       	cpc	r19, r1
    2312:	49 f0       	breq	.+18     	; 0x2326 <ICU_voidSetEdge+0x3e>
    2314:	0f c0       	rjmp	.+30     	; 0x2334 <ICU_voidSetEdge+0x4c>
	{
	case FALLING :
		CLR_BIT(TCCR1B,TCCR1B_ICES1);
    2316:	ae e4       	ldi	r26, 0x4E	; 78
    2318:	b0 e0       	ldi	r27, 0x00	; 0
    231a:	ee e4       	ldi	r30, 0x4E	; 78
    231c:	f0 e0       	ldi	r31, 0x00	; 0
    231e:	80 81       	ld	r24, Z
    2320:	8f 7b       	andi	r24, 0xBF	; 191
    2322:	8c 93       	st	X, r24
    2324:	07 c0       	rjmp	.+14     	; 0x2334 <ICU_voidSetEdge+0x4c>
		break;
	case RISING :
		SET_BIT(TCCR1B,TCCR1B_ICES1);
    2326:	ae e4       	ldi	r26, 0x4E	; 78
    2328:	b0 e0       	ldi	r27, 0x00	; 0
    232a:	ee e4       	ldi	r30, 0x4E	; 78
    232c:	f0 e0       	ldi	r31, 0x00	; 0
    232e:	80 81       	ld	r24, Z
    2330:	80 64       	ori	r24, 0x40	; 64
    2332:	8c 93       	st	X, r24
		break;
	default:
		break;
	}
}
    2334:	0f 90       	pop	r0
    2336:	0f 90       	pop	r0
    2338:	0f 90       	pop	r0
    233a:	cf 91       	pop	r28
    233c:	df 91       	pop	r29
    233e:	08 95       	ret

00002340 <ICU_voidInterrupt>:

void ICU_voidInterrupt(u8 EN)
{
    2340:	df 93       	push	r29
    2342:	cf 93       	push	r28
    2344:	00 d0       	rcall	.+0      	; 0x2346 <ICU_voidInterrupt+0x6>
    2346:	0f 92       	push	r0
    2348:	cd b7       	in	r28, 0x3d	; 61
    234a:	de b7       	in	r29, 0x3e	; 62
    234c:	89 83       	std	Y+1, r24	; 0x01
	switch(EN)
    234e:	89 81       	ldd	r24, Y+1	; 0x01
    2350:	28 2f       	mov	r18, r24
    2352:	30 e0       	ldi	r19, 0x00	; 0
    2354:	3b 83       	std	Y+3, r19	; 0x03
    2356:	2a 83       	std	Y+2, r18	; 0x02
    2358:	8a 81       	ldd	r24, Y+2	; 0x02
    235a:	9b 81       	ldd	r25, Y+3	; 0x03
    235c:	81 30       	cpi	r24, 0x01	; 1
    235e:	91 05       	cpc	r25, r1
    2360:	31 f0       	breq	.+12     	; 0x236e <ICU_voidInterrupt+0x2e>
    2362:	2a 81       	ldd	r18, Y+2	; 0x02
    2364:	3b 81       	ldd	r19, Y+3	; 0x03
    2366:	22 30       	cpi	r18, 0x02	; 2
    2368:	31 05       	cpc	r19, r1
    236a:	49 f0       	breq	.+18     	; 0x237e <ICU_voidInterrupt+0x3e>
    236c:	0f c0       	rjmp	.+30     	; 0x238c <ICU_voidInterrupt+0x4c>
	{
	case ENABLE :
		SET_BIT(TIMSK,TIMSK_TICIE1);
    236e:	a9 e5       	ldi	r26, 0x59	; 89
    2370:	b0 e0       	ldi	r27, 0x00	; 0
    2372:	e9 e5       	ldi	r30, 0x59	; 89
    2374:	f0 e0       	ldi	r31, 0x00	; 0
    2376:	80 81       	ld	r24, Z
    2378:	80 62       	ori	r24, 0x20	; 32
    237a:	8c 93       	st	X, r24
    237c:	07 c0       	rjmp	.+14     	; 0x238c <ICU_voidInterrupt+0x4c>
		break;
	case DISABLE:
		CLR_BIT(TIMSK,TIMSK_TICIE1);
    237e:	a9 e5       	ldi	r26, 0x59	; 89
    2380:	b0 e0       	ldi	r27, 0x00	; 0
    2382:	e9 e5       	ldi	r30, 0x59	; 89
    2384:	f0 e0       	ldi	r31, 0x00	; 0
    2386:	80 81       	ld	r24, Z
    2388:	8f 7d       	andi	r24, 0xDF	; 223
    238a:	8c 93       	st	X, r24
	}
}
    238c:	0f 90       	pop	r0
    238e:	0f 90       	pop	r0
    2390:	0f 90       	pop	r0
    2392:	cf 91       	pop	r28
    2394:	df 91       	pop	r29
    2396:	08 95       	ret

00002398 <ICU_ReadChannelReading>:


u16 ICU_ReadChannelReading(void)
{
    2398:	df 93       	push	r29
    239a:	cf 93       	push	r28
    239c:	cd b7       	in	r28, 0x3d	; 61
    239e:	de b7       	in	r29, 0x3e	; 62
	return ICR1;
    23a0:	e6 e4       	ldi	r30, 0x46	; 70
    23a2:	f0 e0       	ldi	r31, 0x00	; 0
    23a4:	80 81       	ld	r24, Z
    23a6:	91 81       	ldd	r25, Z+1	; 0x01
}
    23a8:	cf 91       	pop	r28
    23aa:	df 91       	pop	r29
    23ac:	08 95       	ret

000023ae <ICU_voidSetCallBack>:


u8 ICU_voidSetCallBack(void (*pvCallBack)(void))
{
    23ae:	df 93       	push	r29
    23b0:	cf 93       	push	r28
    23b2:	00 d0       	rcall	.+0      	; 0x23b4 <ICU_voidSetCallBack+0x6>
    23b4:	0f 92       	push	r0
    23b6:	cd b7       	in	r28, 0x3d	; 61
    23b8:	de b7       	in	r29, 0x3e	; 62
    23ba:	9b 83       	std	Y+3, r25	; 0x03
    23bc:	8a 83       	std	Y+2, r24	; 0x02
	u8 Local_u8ICUErrorState=0;
    23be:	19 82       	std	Y+1, r1	; 0x01
	if(pvCallBack!=NULL)
    23c0:	8a 81       	ldd	r24, Y+2	; 0x02
    23c2:	9b 81       	ldd	r25, Y+3	; 0x03
    23c4:	00 97       	sbiw	r24, 0x00	; 0
    23c6:	39 f0       	breq	.+14     	; 0x23d6 <ICU_voidSetCallBack+0x28>
	{
		ICU_CallBack=pvCallBack;
    23c8:	8a 81       	ldd	r24, Y+2	; 0x02
    23ca:	9b 81       	ldd	r25, Y+3	; 0x03
    23cc:	90 93 91 01 	sts	0x0191, r25
    23d0:	80 93 90 01 	sts	0x0190, r24
    23d4:	02 c0       	rjmp	.+4      	; 0x23da <ICU_voidSetCallBack+0x2c>
	}
	else
	{
		Local_u8ICUErrorState = P_NULL;
    23d6:	83 e0       	ldi	r24, 0x03	; 3
    23d8:	89 83       	std	Y+1, r24	; 0x01
	}
	return Local_u8ICUErrorState;
    23da:	89 81       	ldd	r24, Y+1	; 0x01
}
    23dc:	0f 90       	pop	r0
    23de:	0f 90       	pop	r0
    23e0:	0f 90       	pop	r0
    23e2:	cf 91       	pop	r28
    23e4:	df 91       	pop	r29
    23e6:	08 95       	ret

000023e8 <WDT_voidSleep>:

void WDT_voidSleep(u8 Value)
{
    23e8:	df 93       	push	r29
    23ea:	cf 93       	push	r28
    23ec:	00 d0       	rcall	.+0      	; 0x23ee <WDT_voidSleep+0x6>
    23ee:	0f 92       	push	r0
    23f0:	cd b7       	in	r28, 0x3d	; 61
    23f2:	de b7       	in	r29, 0x3e	; 62
    23f4:	89 83       	std	Y+1, r24	; 0x01
	SET_BIT(WDTCR,WDTCR_WDE);
    23f6:	a1 e4       	ldi	r26, 0x41	; 65
    23f8:	b0 e0       	ldi	r27, 0x00	; 0
    23fa:	e1 e4       	ldi	r30, 0x41	; 65
    23fc:	f0 e0       	ldi	r31, 0x00	; 0
    23fe:	80 81       	ld	r24, Z
    2400:	88 60       	ori	r24, 0x08	; 8
    2402:	8c 93       	st	X, r24
	 * 3 	 For 0.13sec
	 * 4	 For 0.26sec
	 * 5 	 For 0.52sec
	 * 6 	 For 1sec
	 * 7	 For 2.1sec */
	switch(Value)
    2404:	89 81       	ldd	r24, Y+1	; 0x01
    2406:	28 2f       	mov	r18, r24
    2408:	30 e0       	ldi	r19, 0x00	; 0
    240a:	3b 83       	std	Y+3, r19	; 0x03
    240c:	2a 83       	std	Y+2, r18	; 0x02
    240e:	8a 81       	ldd	r24, Y+2	; 0x02
    2410:	9b 81       	ldd	r25, Y+3	; 0x03
    2412:	83 30       	cpi	r24, 0x03	; 3
    2414:	91 05       	cpc	r25, r1
    2416:	09 f4       	brne	.+2      	; 0x241a <WDT_voidSleep+0x32>
    2418:	70 c0       	rjmp	.+224    	; 0x24fa <WDT_voidSleep+0x112>
    241a:	2a 81       	ldd	r18, Y+2	; 0x02
    241c:	3b 81       	ldd	r19, Y+3	; 0x03
    241e:	24 30       	cpi	r18, 0x04	; 4
    2420:	31 05       	cpc	r19, r1
    2422:	84 f4       	brge	.+32     	; 0x2444 <WDT_voidSleep+0x5c>
    2424:	8a 81       	ldd	r24, Y+2	; 0x02
    2426:	9b 81       	ldd	r25, Y+3	; 0x03
    2428:	81 30       	cpi	r24, 0x01	; 1
    242a:	91 05       	cpc	r25, r1
    242c:	d1 f1       	breq	.+116    	; 0x24a2 <WDT_voidSleep+0xba>
    242e:	2a 81       	ldd	r18, Y+2	; 0x02
    2430:	3b 81       	ldd	r19, Y+3	; 0x03
    2432:	22 30       	cpi	r18, 0x02	; 2
    2434:	31 05       	cpc	r19, r1
    2436:	0c f0       	brlt	.+2      	; 0x243a <WDT_voidSleep+0x52>
    2438:	4a c0       	rjmp	.+148    	; 0x24ce <WDT_voidSleep+0xe6>
    243a:	8a 81       	ldd	r24, Y+2	; 0x02
    243c:	9b 81       	ldd	r25, Y+3	; 0x03
    243e:	00 97       	sbiw	r24, 0x00	; 0
    2440:	d1 f0       	breq	.+52     	; 0x2476 <WDT_voidSleep+0x8e>
    2442:	c8 c0       	rjmp	.+400    	; 0x25d4 <WDT_voidSleep+0x1ec>
    2444:	2a 81       	ldd	r18, Y+2	; 0x02
    2446:	3b 81       	ldd	r19, Y+3	; 0x03
    2448:	25 30       	cpi	r18, 0x05	; 5
    244a:	31 05       	cpc	r19, r1
    244c:	09 f4       	brne	.+2      	; 0x2450 <WDT_voidSleep+0x68>
    244e:	81 c0       	rjmp	.+258    	; 0x2552 <WDT_voidSleep+0x16a>
    2450:	8a 81       	ldd	r24, Y+2	; 0x02
    2452:	9b 81       	ldd	r25, Y+3	; 0x03
    2454:	85 30       	cpi	r24, 0x05	; 5
    2456:	91 05       	cpc	r25, r1
    2458:	0c f4       	brge	.+2      	; 0x245c <WDT_voidSleep+0x74>
    245a:	65 c0       	rjmp	.+202    	; 0x2526 <WDT_voidSleep+0x13e>
    245c:	2a 81       	ldd	r18, Y+2	; 0x02
    245e:	3b 81       	ldd	r19, Y+3	; 0x03
    2460:	26 30       	cpi	r18, 0x06	; 6
    2462:	31 05       	cpc	r19, r1
    2464:	09 f4       	brne	.+2      	; 0x2468 <WDT_voidSleep+0x80>
    2466:	8b c0       	rjmp	.+278    	; 0x257e <WDT_voidSleep+0x196>
    2468:	8a 81       	ldd	r24, Y+2	; 0x02
    246a:	9b 81       	ldd	r25, Y+3	; 0x03
    246c:	87 30       	cpi	r24, 0x07	; 7
    246e:	91 05       	cpc	r25, r1
    2470:	09 f4       	brne	.+2      	; 0x2474 <WDT_voidSleep+0x8c>
    2472:	9b c0       	rjmp	.+310    	; 0x25aa <WDT_voidSleep+0x1c2>
    2474:	af c0       	rjmp	.+350    	; 0x25d4 <WDT_voidSleep+0x1ec>
	{
	case 0:
		CLR_BIT(WDTCR,WDTCR_WDP0);
    2476:	a1 e4       	ldi	r26, 0x41	; 65
    2478:	b0 e0       	ldi	r27, 0x00	; 0
    247a:	e1 e4       	ldi	r30, 0x41	; 65
    247c:	f0 e0       	ldi	r31, 0x00	; 0
    247e:	80 81       	ld	r24, Z
    2480:	8e 7f       	andi	r24, 0xFE	; 254
    2482:	8c 93       	st	X, r24
		CLR_BIT(WDTCR,WDTCR_WDP1);
    2484:	a1 e4       	ldi	r26, 0x41	; 65
    2486:	b0 e0       	ldi	r27, 0x00	; 0
    2488:	e1 e4       	ldi	r30, 0x41	; 65
    248a:	f0 e0       	ldi	r31, 0x00	; 0
    248c:	80 81       	ld	r24, Z
    248e:	8d 7f       	andi	r24, 0xFD	; 253
    2490:	8c 93       	st	X, r24
		CLR_BIT(WDTCR,WDTCR_WDP2);
    2492:	a1 e4       	ldi	r26, 0x41	; 65
    2494:	b0 e0       	ldi	r27, 0x00	; 0
    2496:	e1 e4       	ldi	r30, 0x41	; 65
    2498:	f0 e0       	ldi	r31, 0x00	; 0
    249a:	80 81       	ld	r24, Z
    249c:	8b 7f       	andi	r24, 0xFB	; 251
    249e:	8c 93       	st	X, r24
    24a0:	99 c0       	rjmp	.+306    	; 0x25d4 <WDT_voidSleep+0x1ec>
		break;
	case 1:
		SET_BIT(WDTCR,WDTCR_WDP0);
    24a2:	a1 e4       	ldi	r26, 0x41	; 65
    24a4:	b0 e0       	ldi	r27, 0x00	; 0
    24a6:	e1 e4       	ldi	r30, 0x41	; 65
    24a8:	f0 e0       	ldi	r31, 0x00	; 0
    24aa:	80 81       	ld	r24, Z
    24ac:	81 60       	ori	r24, 0x01	; 1
    24ae:	8c 93       	st	X, r24
		CLR_BIT(WDTCR,WDTCR_WDP1);
    24b0:	a1 e4       	ldi	r26, 0x41	; 65
    24b2:	b0 e0       	ldi	r27, 0x00	; 0
    24b4:	e1 e4       	ldi	r30, 0x41	; 65
    24b6:	f0 e0       	ldi	r31, 0x00	; 0
    24b8:	80 81       	ld	r24, Z
    24ba:	8d 7f       	andi	r24, 0xFD	; 253
    24bc:	8c 93       	st	X, r24
		CLR_BIT(WDTCR,WDTCR_WDP2);
    24be:	a1 e4       	ldi	r26, 0x41	; 65
    24c0:	b0 e0       	ldi	r27, 0x00	; 0
    24c2:	e1 e4       	ldi	r30, 0x41	; 65
    24c4:	f0 e0       	ldi	r31, 0x00	; 0
    24c6:	80 81       	ld	r24, Z
    24c8:	8b 7f       	andi	r24, 0xFB	; 251
    24ca:	8c 93       	st	X, r24
    24cc:	83 c0       	rjmp	.+262    	; 0x25d4 <WDT_voidSleep+0x1ec>
		break;
	case 2:
		CLR_BIT(WDTCR,WDTCR_WDP0);
    24ce:	a1 e4       	ldi	r26, 0x41	; 65
    24d0:	b0 e0       	ldi	r27, 0x00	; 0
    24d2:	e1 e4       	ldi	r30, 0x41	; 65
    24d4:	f0 e0       	ldi	r31, 0x00	; 0
    24d6:	80 81       	ld	r24, Z
    24d8:	8e 7f       	andi	r24, 0xFE	; 254
    24da:	8c 93       	st	X, r24
		SET_BIT(WDTCR,WDTCR_WDP1);
    24dc:	a1 e4       	ldi	r26, 0x41	; 65
    24de:	b0 e0       	ldi	r27, 0x00	; 0
    24e0:	e1 e4       	ldi	r30, 0x41	; 65
    24e2:	f0 e0       	ldi	r31, 0x00	; 0
    24e4:	80 81       	ld	r24, Z
    24e6:	82 60       	ori	r24, 0x02	; 2
    24e8:	8c 93       	st	X, r24
		CLR_BIT(WDTCR,WDTCR_WDP2);
    24ea:	a1 e4       	ldi	r26, 0x41	; 65
    24ec:	b0 e0       	ldi	r27, 0x00	; 0
    24ee:	e1 e4       	ldi	r30, 0x41	; 65
    24f0:	f0 e0       	ldi	r31, 0x00	; 0
    24f2:	80 81       	ld	r24, Z
    24f4:	8b 7f       	andi	r24, 0xFB	; 251
    24f6:	8c 93       	st	X, r24
    24f8:	6d c0       	rjmp	.+218    	; 0x25d4 <WDT_voidSleep+0x1ec>
		break;
	case 3:
		SET_BIT(WDTCR,WDTCR_WDP0);
    24fa:	a1 e4       	ldi	r26, 0x41	; 65
    24fc:	b0 e0       	ldi	r27, 0x00	; 0
    24fe:	e1 e4       	ldi	r30, 0x41	; 65
    2500:	f0 e0       	ldi	r31, 0x00	; 0
    2502:	80 81       	ld	r24, Z
    2504:	81 60       	ori	r24, 0x01	; 1
    2506:	8c 93       	st	X, r24
		SET_BIT(WDTCR,WDTCR_WDP1);
    2508:	a1 e4       	ldi	r26, 0x41	; 65
    250a:	b0 e0       	ldi	r27, 0x00	; 0
    250c:	e1 e4       	ldi	r30, 0x41	; 65
    250e:	f0 e0       	ldi	r31, 0x00	; 0
    2510:	80 81       	ld	r24, Z
    2512:	82 60       	ori	r24, 0x02	; 2
    2514:	8c 93       	st	X, r24
		CLR_BIT(WDTCR,WDTCR_WDP2);
    2516:	a1 e4       	ldi	r26, 0x41	; 65
    2518:	b0 e0       	ldi	r27, 0x00	; 0
    251a:	e1 e4       	ldi	r30, 0x41	; 65
    251c:	f0 e0       	ldi	r31, 0x00	; 0
    251e:	80 81       	ld	r24, Z
    2520:	8b 7f       	andi	r24, 0xFB	; 251
    2522:	8c 93       	st	X, r24
    2524:	57 c0       	rjmp	.+174    	; 0x25d4 <WDT_voidSleep+0x1ec>
		break;
	case 4:
		CLR_BIT(WDTCR,WDTCR_WDP0);
    2526:	a1 e4       	ldi	r26, 0x41	; 65
    2528:	b0 e0       	ldi	r27, 0x00	; 0
    252a:	e1 e4       	ldi	r30, 0x41	; 65
    252c:	f0 e0       	ldi	r31, 0x00	; 0
    252e:	80 81       	ld	r24, Z
    2530:	8e 7f       	andi	r24, 0xFE	; 254
    2532:	8c 93       	st	X, r24
		CLR_BIT(WDTCR,WDTCR_WDP1);
    2534:	a1 e4       	ldi	r26, 0x41	; 65
    2536:	b0 e0       	ldi	r27, 0x00	; 0
    2538:	e1 e4       	ldi	r30, 0x41	; 65
    253a:	f0 e0       	ldi	r31, 0x00	; 0
    253c:	80 81       	ld	r24, Z
    253e:	8d 7f       	andi	r24, 0xFD	; 253
    2540:	8c 93       	st	X, r24
		SET_BIT(WDTCR,WDTCR_WDP2);
    2542:	a1 e4       	ldi	r26, 0x41	; 65
    2544:	b0 e0       	ldi	r27, 0x00	; 0
    2546:	e1 e4       	ldi	r30, 0x41	; 65
    2548:	f0 e0       	ldi	r31, 0x00	; 0
    254a:	80 81       	ld	r24, Z
    254c:	84 60       	ori	r24, 0x04	; 4
    254e:	8c 93       	st	X, r24
    2550:	41 c0       	rjmp	.+130    	; 0x25d4 <WDT_voidSleep+0x1ec>
		break;
	case 5:
		SET_BIT(WDTCR,WDTCR_WDP0);
    2552:	a1 e4       	ldi	r26, 0x41	; 65
    2554:	b0 e0       	ldi	r27, 0x00	; 0
    2556:	e1 e4       	ldi	r30, 0x41	; 65
    2558:	f0 e0       	ldi	r31, 0x00	; 0
    255a:	80 81       	ld	r24, Z
    255c:	81 60       	ori	r24, 0x01	; 1
    255e:	8c 93       	st	X, r24
		CLR_BIT(WDTCR,WDTCR_WDP1);
    2560:	a1 e4       	ldi	r26, 0x41	; 65
    2562:	b0 e0       	ldi	r27, 0x00	; 0
    2564:	e1 e4       	ldi	r30, 0x41	; 65
    2566:	f0 e0       	ldi	r31, 0x00	; 0
    2568:	80 81       	ld	r24, Z
    256a:	8d 7f       	andi	r24, 0xFD	; 253
    256c:	8c 93       	st	X, r24
		SET_BIT(WDTCR,WDTCR_WDP2);
    256e:	a1 e4       	ldi	r26, 0x41	; 65
    2570:	b0 e0       	ldi	r27, 0x00	; 0
    2572:	e1 e4       	ldi	r30, 0x41	; 65
    2574:	f0 e0       	ldi	r31, 0x00	; 0
    2576:	80 81       	ld	r24, Z
    2578:	84 60       	ori	r24, 0x04	; 4
    257a:	8c 93       	st	X, r24
    257c:	2b c0       	rjmp	.+86     	; 0x25d4 <WDT_voidSleep+0x1ec>
		break;
	case 6:
		CLR_BIT(WDTCR,WDTCR_WDP0);
    257e:	a1 e4       	ldi	r26, 0x41	; 65
    2580:	b0 e0       	ldi	r27, 0x00	; 0
    2582:	e1 e4       	ldi	r30, 0x41	; 65
    2584:	f0 e0       	ldi	r31, 0x00	; 0
    2586:	80 81       	ld	r24, Z
    2588:	8e 7f       	andi	r24, 0xFE	; 254
    258a:	8c 93       	st	X, r24
		SET_BIT(WDTCR,WDTCR_WDP1);
    258c:	a1 e4       	ldi	r26, 0x41	; 65
    258e:	b0 e0       	ldi	r27, 0x00	; 0
    2590:	e1 e4       	ldi	r30, 0x41	; 65
    2592:	f0 e0       	ldi	r31, 0x00	; 0
    2594:	80 81       	ld	r24, Z
    2596:	82 60       	ori	r24, 0x02	; 2
    2598:	8c 93       	st	X, r24
		SET_BIT(WDTCR,WDTCR_WDP2);
    259a:	a1 e4       	ldi	r26, 0x41	; 65
    259c:	b0 e0       	ldi	r27, 0x00	; 0
    259e:	e1 e4       	ldi	r30, 0x41	; 65
    25a0:	f0 e0       	ldi	r31, 0x00	; 0
    25a2:	80 81       	ld	r24, Z
    25a4:	84 60       	ori	r24, 0x04	; 4
    25a6:	8c 93       	st	X, r24
    25a8:	15 c0       	rjmp	.+42     	; 0x25d4 <WDT_voidSleep+0x1ec>
		break;
	case 7:
		SET_BIT(WDTCR,WDTCR_WDP0);
    25aa:	a1 e4       	ldi	r26, 0x41	; 65
    25ac:	b0 e0       	ldi	r27, 0x00	; 0
    25ae:	e1 e4       	ldi	r30, 0x41	; 65
    25b0:	f0 e0       	ldi	r31, 0x00	; 0
    25b2:	80 81       	ld	r24, Z
    25b4:	81 60       	ori	r24, 0x01	; 1
    25b6:	8c 93       	st	X, r24
		SET_BIT(WDTCR,WDTCR_WDP1);
    25b8:	a1 e4       	ldi	r26, 0x41	; 65
    25ba:	b0 e0       	ldi	r27, 0x00	; 0
    25bc:	e1 e4       	ldi	r30, 0x41	; 65
    25be:	f0 e0       	ldi	r31, 0x00	; 0
    25c0:	80 81       	ld	r24, Z
    25c2:	82 60       	ori	r24, 0x02	; 2
    25c4:	8c 93       	st	X, r24
		SET_BIT(WDTCR,WDTCR_WDP2);
    25c6:	a1 e4       	ldi	r26, 0x41	; 65
    25c8:	b0 e0       	ldi	r27, 0x00	; 0
    25ca:	e1 e4       	ldi	r30, 0x41	; 65
    25cc:	f0 e0       	ldi	r31, 0x00	; 0
    25ce:	80 81       	ld	r24, Z
    25d0:	84 60       	ori	r24, 0x04	; 4
    25d2:	8c 93       	st	X, r24
		break;

	}
}
    25d4:	0f 90       	pop	r0
    25d6:	0f 90       	pop	r0
    25d8:	0f 90       	pop	r0
    25da:	cf 91       	pop	r28
    25dc:	df 91       	pop	r29
    25de:	08 95       	ret

000025e0 <WDT_voidDisable>:

void WDT_voidDisable(void)
{
    25e0:	df 93       	push	r29
    25e2:	cf 93       	push	r28
    25e4:	cd b7       	in	r28, 0x3d	; 61
    25e6:	de b7       	in	r29, 0x3e	; 62
	WDTCR=0b00011000;
    25e8:	e1 e4       	ldi	r30, 0x41	; 65
    25ea:	f0 e0       	ldi	r31, 0x00	; 0
    25ec:	88 e1       	ldi	r24, 0x18	; 24
    25ee:	80 83       	st	Z, r24
	WDTCR=0;
    25f0:	e1 e4       	ldi	r30, 0x41	; 65
    25f2:	f0 e0       	ldi	r31, 0x00	; 0
    25f4:	10 82       	st	Z, r1
}
    25f6:	cf 91       	pop	r28
    25f8:	df 91       	pop	r29
    25fa:	08 95       	ret

000025fc <__vector_10>:



void __vector_10(void)      __attribute__((signal));
void __vector_10(void)
{
    25fc:	1f 92       	push	r1
    25fe:	0f 92       	push	r0
    2600:	0f b6       	in	r0, 0x3f	; 63
    2602:	0f 92       	push	r0
    2604:	11 24       	eor	r1, r1
    2606:	2f 93       	push	r18
    2608:	3f 93       	push	r19
    260a:	4f 93       	push	r20
    260c:	5f 93       	push	r21
    260e:	6f 93       	push	r22
    2610:	7f 93       	push	r23
    2612:	8f 93       	push	r24
    2614:	9f 93       	push	r25
    2616:	af 93       	push	r26
    2618:	bf 93       	push	r27
    261a:	ef 93       	push	r30
    261c:	ff 93       	push	r31
    261e:	df 93       	push	r29
    2620:	cf 93       	push	r28
    2622:	cd b7       	in	r28, 0x3d	; 61
    2624:	de b7       	in	r29, 0x3e	; 62
	if(TIMER0_COMPCallBack!=NULL)
    2626:	80 91 8c 01 	lds	r24, 0x018C
    262a:	90 91 8d 01 	lds	r25, 0x018D
    262e:	00 97       	sbiw	r24, 0x00	; 0
    2630:	29 f0       	breq	.+10     	; 0x263c <__vector_10+0x40>
	{
		TIMER0_COMPCallBack();
    2632:	e0 91 8c 01 	lds	r30, 0x018C
    2636:	f0 91 8d 01 	lds	r31, 0x018D
    263a:	09 95       	icall
	}
}
    263c:	cf 91       	pop	r28
    263e:	df 91       	pop	r29
    2640:	ff 91       	pop	r31
    2642:	ef 91       	pop	r30
    2644:	bf 91       	pop	r27
    2646:	af 91       	pop	r26
    2648:	9f 91       	pop	r25
    264a:	8f 91       	pop	r24
    264c:	7f 91       	pop	r23
    264e:	6f 91       	pop	r22
    2650:	5f 91       	pop	r21
    2652:	4f 91       	pop	r20
    2654:	3f 91       	pop	r19
    2656:	2f 91       	pop	r18
    2658:	0f 90       	pop	r0
    265a:	0f be       	out	0x3f, r0	; 63
    265c:	0f 90       	pop	r0
    265e:	1f 90       	pop	r1
    2660:	18 95       	reti

00002662 <__vector_11>:

void __vector_11(void)      __attribute__((signal));
void __vector_11(void)
{
    2662:	1f 92       	push	r1
    2664:	0f 92       	push	r0
    2666:	0f b6       	in	r0, 0x3f	; 63
    2668:	0f 92       	push	r0
    266a:	11 24       	eor	r1, r1
    266c:	2f 93       	push	r18
    266e:	3f 93       	push	r19
    2670:	4f 93       	push	r20
    2672:	5f 93       	push	r21
    2674:	6f 93       	push	r22
    2676:	7f 93       	push	r23
    2678:	8f 93       	push	r24
    267a:	9f 93       	push	r25
    267c:	af 93       	push	r26
    267e:	bf 93       	push	r27
    2680:	ef 93       	push	r30
    2682:	ff 93       	push	r31
    2684:	df 93       	push	r29
    2686:	cf 93       	push	r28
    2688:	cd b7       	in	r28, 0x3d	; 61
    268a:	de b7       	in	r29, 0x3e	; 62
	if(TIMER0_OVFCallBack!=NULL)
    268c:	80 91 8e 01 	lds	r24, 0x018E
    2690:	90 91 8f 01 	lds	r25, 0x018F
    2694:	00 97       	sbiw	r24, 0x00	; 0
    2696:	29 f0       	breq	.+10     	; 0x26a2 <__vector_11+0x40>
	{
		TIMER0_OVFCallBack();
    2698:	e0 91 8e 01 	lds	r30, 0x018E
    269c:	f0 91 8f 01 	lds	r31, 0x018F
    26a0:	09 95       	icall
	}
}
    26a2:	cf 91       	pop	r28
    26a4:	df 91       	pop	r29
    26a6:	ff 91       	pop	r31
    26a8:	ef 91       	pop	r30
    26aa:	bf 91       	pop	r27
    26ac:	af 91       	pop	r26
    26ae:	9f 91       	pop	r25
    26b0:	8f 91       	pop	r24
    26b2:	7f 91       	pop	r23
    26b4:	6f 91       	pop	r22
    26b6:	5f 91       	pop	r21
    26b8:	4f 91       	pop	r20
    26ba:	3f 91       	pop	r19
    26bc:	2f 91       	pop	r18
    26be:	0f 90       	pop	r0
    26c0:	0f be       	out	0x3f, r0	; 63
    26c2:	0f 90       	pop	r0
    26c4:	1f 90       	pop	r1
    26c6:	18 95       	reti

000026c8 <__vector_6>:


void __vector_6(void)		__attribute__((signal));
void __vector_6(void)
{
    26c8:	1f 92       	push	r1
    26ca:	0f 92       	push	r0
    26cc:	0f b6       	in	r0, 0x3f	; 63
    26ce:	0f 92       	push	r0
    26d0:	11 24       	eor	r1, r1
    26d2:	2f 93       	push	r18
    26d4:	3f 93       	push	r19
    26d6:	4f 93       	push	r20
    26d8:	5f 93       	push	r21
    26da:	6f 93       	push	r22
    26dc:	7f 93       	push	r23
    26de:	8f 93       	push	r24
    26e0:	9f 93       	push	r25
    26e2:	af 93       	push	r26
    26e4:	bf 93       	push	r27
    26e6:	ef 93       	push	r30
    26e8:	ff 93       	push	r31
    26ea:	df 93       	push	r29
    26ec:	cf 93       	push	r28
    26ee:	cd b7       	in	r28, 0x3d	; 61
    26f0:	de b7       	in	r29, 0x3e	; 62
	if(ICU_CallBack != NULL)
    26f2:	80 91 90 01 	lds	r24, 0x0190
    26f6:	90 91 91 01 	lds	r25, 0x0191
    26fa:	00 97       	sbiw	r24, 0x00	; 0
    26fc:	29 f0       	breq	.+10     	; 0x2708 <__vector_6+0x40>
	{
		ICU_CallBack();
    26fe:	e0 91 90 01 	lds	r30, 0x0190
    2702:	f0 91 91 01 	lds	r31, 0x0191
    2706:	09 95       	icall
	}
}
    2708:	cf 91       	pop	r28
    270a:	df 91       	pop	r29
    270c:	ff 91       	pop	r31
    270e:	ef 91       	pop	r30
    2710:	bf 91       	pop	r27
    2712:	af 91       	pop	r26
    2714:	9f 91       	pop	r25
    2716:	8f 91       	pop	r24
    2718:	7f 91       	pop	r23
    271a:	6f 91       	pop	r22
    271c:	5f 91       	pop	r21
    271e:	4f 91       	pop	r20
    2720:	3f 91       	pop	r19
    2722:	2f 91       	pop	r18
    2724:	0f 90       	pop	r0
    2726:	0f be       	out	0x3f, r0	; 63
    2728:	0f 90       	pop	r0
    272a:	1f 90       	pop	r1
    272c:	18 95       	reti

0000272e <ADC_voidInit>:
static u8 ADC_u8CahinIndex;
static u8 ADC_u8ISRSource;
static u8 SingleChannelAsync=0;
static u8 ChainChannel=1;
void ADC_voidInit(void)
{
    272e:	df 93       	push	r29
    2730:	cf 93       	push	r28
    2732:	cd b7       	in	r28, 0x3d	; 61
    2734:	de b7       	in	r29, 0x3e	; 62
	/*AVCC as reference voltage*/
	SET_BIT(ADMUX,ADMUX_REFS0);
    2736:	a7 e2       	ldi	r26, 0x27	; 39
    2738:	b0 e0       	ldi	r27, 0x00	; 0
    273a:	e7 e2       	ldi	r30, 0x27	; 39
    273c:	f0 e0       	ldi	r31, 0x00	; 0
    273e:	80 81       	ld	r24, Z
    2740:	80 64       	ori	r24, 0x40	; 64
    2742:	8c 93       	st	X, r24
	CLR_BIT(ADMUX,ADMUX_REFS1);
    2744:	a7 e2       	ldi	r26, 0x27	; 39
    2746:	b0 e0       	ldi	r27, 0x00	; 0
    2748:	e7 e2       	ldi	r30, 0x27	; 39
    274a:	f0 e0       	ldi	r31, 0x00	; 0
    274c:	80 81       	ld	r24, Z
    274e:	8f 77       	andi	r24, 0x7F	; 127
    2750:	8c 93       	st	X, r24

#if ADC_ADJUST == ENABLE
	/*ACTIVATE left adjust to 1*/
	SET_BIT(ADMUX,ADMUX_ADLAR);
    2752:	a7 e2       	ldi	r26, 0x27	; 39
    2754:	b0 e0       	ldi	r27, 0x00	; 0
    2756:	e7 e2       	ldi	r30, 0x27	; 39
    2758:	f0 e0       	ldi	r31, 0x00	; 0
    275a:	80 81       	ld	r24, Z
    275c:	80 62       	ori	r24, 0x20	; 32
    275e:	8c 93       	st	X, r24
	CLR_BIT(ADMUX,ADMUX_ADLAR);

#endif

	/*Set Prescaler Bits*/
	ADCSRA &= 0b11111000;
    2760:	a6 e2       	ldi	r26, 0x26	; 38
    2762:	b0 e0       	ldi	r27, 0x00	; 0
    2764:	e6 e2       	ldi	r30, 0x26	; 38
    2766:	f0 e0       	ldi	r31, 0x00	; 0
    2768:	80 81       	ld	r24, Z
    276a:	88 7f       	andi	r24, 0xF8	; 248
    276c:	8c 93       	st	X, r24
	ADCSRA |= ADC_PRESC ;
    276e:	a6 e2       	ldi	r26, 0x26	; 38
    2770:	b0 e0       	ldi	r27, 0x00	; 0
    2772:	e6 e2       	ldi	r30, 0x26	; 38
    2774:	f0 e0       	ldi	r31, 0x00	; 0
    2776:	80 81       	ld	r24, Z
    2778:	87 60       	ori	r24, 0x07	; 7
    277a:	8c 93       	st	X, r24

	/*Enable ADC */
	SET_BIT(ADCSRA,ADCSRA_ADEN);
    277c:	a6 e2       	ldi	r26, 0x26	; 38
    277e:	b0 e0       	ldi	r27, 0x00	; 0
    2780:	e6 e2       	ldi	r30, 0x26	; 38
    2782:	f0 e0       	ldi	r31, 0x00	; 0
    2784:	80 81       	ld	r24, Z
    2786:	80 68       	ori	r24, 0x80	; 128
    2788:	8c 93       	st	X, r24
}
    278a:	cf 91       	pop	r28
    278c:	df 91       	pop	r29
    278e:	08 95       	ret

00002790 <ADC_u8StartConversionSync>:

u8 ADC_u8StartConversionSync(u8 Copy_u8Channel,u8* Copy_pu8Reading)
{
    2790:	df 93       	push	r29
    2792:	cf 93       	push	r28
    2794:	cd b7       	in	r28, 0x3d	; 61
    2796:	de b7       	in	r29, 0x3e	; 62
    2798:	28 97       	sbiw	r28, 0x08	; 8
    279a:	0f b6       	in	r0, 0x3f	; 63
    279c:	f8 94       	cli
    279e:	de bf       	out	0x3e, r29	; 62
    27a0:	0f be       	out	0x3f, r0	; 63
    27a2:	cd bf       	out	0x3d, r28	; 61
    27a4:	8e 83       	std	Y+6, r24	; 0x06
    27a6:	78 87       	std	Y+8, r23	; 0x08
    27a8:	6f 83       	std	Y+7, r22	; 0x07
	u8 Local_ErrorState=OK;
    27aa:	1d 82       	std	Y+5, r1	; 0x05
	if(Local_u8BusyState==IDLE)
    27ac:	80 91 9d 01 	lds	r24, 0x019D
    27b0:	88 23       	and	r24, r24
    27b2:	09 f0       	breq	.+2      	; 0x27b6 <ADC_u8StartConversionSync+0x26>
    27b4:	5f c0       	rjmp	.+190    	; 0x2874 <ADC_u8StartConversionSync+0xe4>
	{
		Local_u8BusyState = BUSY;
    27b6:	81 e0       	ldi	r24, 0x01	; 1
    27b8:	80 93 9d 01 	sts	0x019D, r24
		u32 Local_u32Counter=0;
    27bc:	19 82       	std	Y+1, r1	; 0x01
    27be:	1a 82       	std	Y+2, r1	; 0x02
    27c0:	1b 82       	std	Y+3, r1	; 0x03
    27c2:	1c 82       	std	Y+4, r1	; 0x04
		/*Clear MUX bits*/
		ADMUX &= 0b11100000;
    27c4:	a7 e2       	ldi	r26, 0x27	; 39
    27c6:	b0 e0       	ldi	r27, 0x00	; 0
    27c8:	e7 e2       	ldi	r30, 0x27	; 39
    27ca:	f0 e0       	ldi	r31, 0x00	; 0
    27cc:	80 81       	ld	r24, Z
    27ce:	80 7e       	andi	r24, 0xE0	; 224
    27d0:	8c 93       	st	X, r24

		/*Set Channel on MUX*/
		ADMUX |= Copy_u8Channel;
    27d2:	a7 e2       	ldi	r26, 0x27	; 39
    27d4:	b0 e0       	ldi	r27, 0x00	; 0
    27d6:	e7 e2       	ldi	r30, 0x27	; 39
    27d8:	f0 e0       	ldi	r31, 0x00	; 0
    27da:	90 81       	ld	r25, Z
    27dc:	8e 81       	ldd	r24, Y+6	; 0x06
    27de:	89 2b       	or	r24, r25
    27e0:	8c 93       	st	X, r24

		/*Start Conversion*/
		SET_BIT(ADCSRA,ADCSRA_ADSC);
    27e2:	a6 e2       	ldi	r26, 0x26	; 38
    27e4:	b0 e0       	ldi	r27, 0x00	; 0
    27e6:	e6 e2       	ldi	r30, 0x26	; 38
    27e8:	f0 e0       	ldi	r31, 0x00	; 0
    27ea:	80 81       	ld	r24, Z
    27ec:	80 64       	ori	r24, 0x40	; 64
    27ee:	8c 93       	st	X, r24
    27f0:	0b c0       	rjmp	.+22     	; 0x2808 <ADC_u8StartConversionSync+0x78>

		/*Polling (busy waiting) until the conversion complete flag is set*/
		while((GET_BIT(ADCSRA,ADCSRA_ADIF)==0) && (Local_u32Counter != ADC_u32TIMEOUT))
		{
			Local_u32Counter++;
    27f2:	89 81       	ldd	r24, Y+1	; 0x01
    27f4:	9a 81       	ldd	r25, Y+2	; 0x02
    27f6:	ab 81       	ldd	r26, Y+3	; 0x03
    27f8:	bc 81       	ldd	r27, Y+4	; 0x04
    27fa:	01 96       	adiw	r24, 0x01	; 1
    27fc:	a1 1d       	adc	r26, r1
    27fe:	b1 1d       	adc	r27, r1
    2800:	89 83       	std	Y+1, r24	; 0x01
    2802:	9a 83       	std	Y+2, r25	; 0x02
    2804:	ab 83       	std	Y+3, r26	; 0x03
    2806:	bc 83       	std	Y+4, r27	; 0x04

		/*Start Conversion*/
		SET_BIT(ADCSRA,ADCSRA_ADSC);

		/*Polling (busy waiting) until the conversion complete flag is set*/
		while((GET_BIT(ADCSRA,ADCSRA_ADIF)==0) && (Local_u32Counter != ADC_u32TIMEOUT))
    2808:	e6 e2       	ldi	r30, 0x26	; 38
    280a:	f0 e0       	ldi	r31, 0x00	; 0
    280c:	80 81       	ld	r24, Z
    280e:	82 95       	swap	r24
    2810:	8f 70       	andi	r24, 0x0F	; 15
    2812:	88 2f       	mov	r24, r24
    2814:	90 e0       	ldi	r25, 0x00	; 0
    2816:	81 70       	andi	r24, 0x01	; 1
    2818:	90 70       	andi	r25, 0x00	; 0
    281a:	00 97       	sbiw	r24, 0x00	; 0
    281c:	61 f4       	brne	.+24     	; 0x2836 <ADC_u8StartConversionSync+0xa6>
    281e:	89 81       	ldd	r24, Y+1	; 0x01
    2820:	9a 81       	ldd	r25, Y+2	; 0x02
    2822:	ab 81       	ldd	r26, Y+3	; 0x03
    2824:	bc 81       	ldd	r27, Y+4	; 0x04
    2826:	80 35       	cpi	r24, 0x50	; 80
    2828:	23 ec       	ldi	r18, 0xC3	; 195
    282a:	92 07       	cpc	r25, r18
    282c:	20 e0       	ldi	r18, 0x00	; 0
    282e:	a2 07       	cpc	r26, r18
    2830:	20 e0       	ldi	r18, 0x00	; 0
    2832:	b2 07       	cpc	r27, r18
    2834:	f1 f6       	brne	.-68     	; 0x27f2 <ADC_u8StartConversionSync+0x62>
		{
			Local_u32Counter++;
		}
		if(Local_u32Counter==ADC_u32TIMEOUT)
    2836:	89 81       	ldd	r24, Y+1	; 0x01
    2838:	9a 81       	ldd	r25, Y+2	; 0x02
    283a:	ab 81       	ldd	r26, Y+3	; 0x03
    283c:	bc 81       	ldd	r27, Y+4	; 0x04
    283e:	80 35       	cpi	r24, 0x50	; 80
    2840:	23 ec       	ldi	r18, 0xC3	; 195
    2842:	92 07       	cpc	r25, r18
    2844:	20 e0       	ldi	r18, 0x00	; 0
    2846:	a2 07       	cpc	r26, r18
    2848:	20 e0       	ldi	r18, 0x00	; 0
    284a:	b2 07       	cpc	r27, r18
    284c:	19 f4       	brne	.+6      	; 0x2854 <ADC_u8StartConversionSync+0xc4>
		{
			//TIMEOUT
			Local_ErrorState=NOK;
    284e:	81 e0       	ldi	r24, 0x01	; 1
    2850:	8d 83       	std	Y+5, r24	; 0x05
    2852:	12 c0       	rjmp	.+36     	; 0x2878 <ADC_u8StartConversionSync+0xe8>
		}

		else
		{
			/*Clear conversion Flag*/
			SET_BIT(ADCSRA,ADCSRA_ADIF);
    2854:	a6 e2       	ldi	r26, 0x26	; 38
    2856:	b0 e0       	ldi	r27, 0x00	; 0
    2858:	e6 e2       	ldi	r30, 0x26	; 38
    285a:	f0 e0       	ldi	r31, 0x00	; 0
    285c:	80 81       	ld	r24, Z
    285e:	80 61       	ori	r24, 0x10	; 16
    2860:	8c 93       	st	X, r24
#if ADC_ADJUST==ENABLE
			/*Return The value*/
			*Copy_pu8Reading = ADCH;
    2862:	e5 e2       	ldi	r30, 0x25	; 37
    2864:	f0 e0       	ldi	r31, 0x00	; 0
    2866:	80 81       	ld	r24, Z
    2868:	ef 81       	ldd	r30, Y+7	; 0x07
    286a:	f8 85       	ldd	r31, Y+8	; 0x08
    286c:	80 83       	st	Z, r24

			Local_ADCReading = (ADCL|(ADCH<<8));
			*Copy_pu8Reading=Local_ADCReading;

#endif
			Local_u8BusyState = IDLE;
    286e:	10 92 9d 01 	sts	0x019D, r1
    2872:	02 c0       	rjmp	.+4      	; 0x2878 <ADC_u8StartConversionSync+0xe8>
		}
	}
	else
	{
		Local_ErrorState= BUSY_ERROR;
    2874:	82 e0       	ldi	r24, 0x02	; 2
    2876:	8d 83       	std	Y+5, r24	; 0x05
	}
	return Local_ErrorState;
    2878:	8d 81       	ldd	r24, Y+5	; 0x05
}
    287a:	28 96       	adiw	r28, 0x08	; 8
    287c:	0f b6       	in	r0, 0x3f	; 63
    287e:	f8 94       	cli
    2880:	de bf       	out	0x3e, r29	; 62
    2882:	0f be       	out	0x3f, r0	; 63
    2884:	cd bf       	out	0x3d, r28	; 61
    2886:	cf 91       	pop	r28
    2888:	df 91       	pop	r29
    288a:	08 95       	ret

0000288c <ADC_u8StartConversionAsync>:

u8 ADC_u8StartConversionAsync(u8 Copy_u8Channel,u8* Copy_pu8Reading ,void(*Copy_pvNot)(void))
{
    288c:	df 93       	push	r29
    288e:	cf 93       	push	r28
    2890:	00 d0       	rcall	.+0      	; 0x2892 <ADC_u8StartConversionAsync+0x6>
    2892:	00 d0       	rcall	.+0      	; 0x2894 <ADC_u8StartConversionAsync+0x8>
    2894:	00 d0       	rcall	.+0      	; 0x2896 <ADC_u8StartConversionAsync+0xa>
    2896:	cd b7       	in	r28, 0x3d	; 61
    2898:	de b7       	in	r29, 0x3e	; 62
    289a:	8a 83       	std	Y+2, r24	; 0x02
    289c:	7c 83       	std	Y+4, r23	; 0x04
    289e:	6b 83       	std	Y+3, r22	; 0x03
    28a0:	5e 83       	std	Y+6, r21	; 0x06
    28a2:	4d 83       	std	Y+5, r20	; 0x05
	u8 Local_ErrorState =OK;
    28a4:	19 82       	std	Y+1, r1	; 0x01
	if(Local_u8BusyState==IDLE)
    28a6:	80 91 9d 01 	lds	r24, 0x019D
    28aa:	88 23       	and	r24, r24
    28ac:	e1 f5       	brne	.+120    	; 0x2926 <ADC_u8StartConversionAsync+0x9a>
	{
		if((Copy_pvNot==NULL) || (Copy_pu8Reading ==NULL))
    28ae:	8d 81       	ldd	r24, Y+5	; 0x05
    28b0:	9e 81       	ldd	r25, Y+6	; 0x06
    28b2:	00 97       	sbiw	r24, 0x00	; 0
    28b4:	21 f0       	breq	.+8      	; 0x28be <ADC_u8StartConversionAsync+0x32>
    28b6:	8b 81       	ldd	r24, Y+3	; 0x03
    28b8:	9c 81       	ldd	r25, Y+4	; 0x04
    28ba:	00 97       	sbiw	r24, 0x00	; 0
    28bc:	19 f4       	brne	.+6      	; 0x28c4 <ADC_u8StartConversionAsync+0x38>
		{
			Local_ErrorState=NOK;
    28be:	81 e0       	ldi	r24, 0x01	; 1
    28c0:	89 83       	std	Y+1, r24	; 0x01
    28c2:	33 c0       	rjmp	.+102    	; 0x292a <ADC_u8StartConversionAsync+0x9e>
		}
		else
		{

			Local_u8BusyState = BUSY;
    28c4:	81 e0       	ldi	r24, 0x01	; 1
    28c6:	80 93 9d 01 	sts	0x019D, r24

			ADC_u8ISRSource=SingleChannelAsync;
    28ca:	80 91 a2 01 	lds	r24, 0x01A2
    28ce:	80 93 a5 01 	sts	0x01A5, r24

			ADC_pvCallBack=Copy_pvNot;
    28d2:	8d 81       	ldd	r24, Y+5	; 0x05
    28d4:	9e 81       	ldd	r25, Y+6	; 0x06
    28d6:	90 93 9c 01 	sts	0x019C, r25
    28da:	80 93 9b 01 	sts	0x019B, r24

			ADC_pu8Reading=Copy_pu8Reading;
    28de:	8b 81       	ldd	r24, Y+3	; 0x03
    28e0:	9c 81       	ldd	r25, Y+4	; 0x04
    28e2:	90 93 9a 01 	sts	0x019A, r25
    28e6:	80 93 99 01 	sts	0x0199, r24

			/*Clear MUX bits*/
			ADMUX &= 0b11100000;
    28ea:	a7 e2       	ldi	r26, 0x27	; 39
    28ec:	b0 e0       	ldi	r27, 0x00	; 0
    28ee:	e7 e2       	ldi	r30, 0x27	; 39
    28f0:	f0 e0       	ldi	r31, 0x00	; 0
    28f2:	80 81       	ld	r24, Z
    28f4:	80 7e       	andi	r24, 0xE0	; 224
    28f6:	8c 93       	st	X, r24

			/*Set Channel on MUX*/
			ADMUX |= Copy_u8Channel;
    28f8:	a7 e2       	ldi	r26, 0x27	; 39
    28fa:	b0 e0       	ldi	r27, 0x00	; 0
    28fc:	e7 e2       	ldi	r30, 0x27	; 39
    28fe:	f0 e0       	ldi	r31, 0x00	; 0
    2900:	90 81       	ld	r25, Z
    2902:	8a 81       	ldd	r24, Y+2	; 0x02
    2904:	89 2b       	or	r24, r25
    2906:	8c 93       	st	X, r24

			/*Start Conversion*/
			SET_BIT(ADCSRA,ADCSRA_ADSC);
    2908:	a6 e2       	ldi	r26, 0x26	; 38
    290a:	b0 e0       	ldi	r27, 0x00	; 0
    290c:	e6 e2       	ldi	r30, 0x26	; 38
    290e:	f0 e0       	ldi	r31, 0x00	; 0
    2910:	80 81       	ld	r24, Z
    2912:	80 64       	ori	r24, 0x40	; 64
    2914:	8c 93       	st	X, r24

			/*Enable ADC INT*/
			SET_BIT(ADCSRA,ADCSRA_ADIE);
    2916:	a6 e2       	ldi	r26, 0x26	; 38
    2918:	b0 e0       	ldi	r27, 0x00	; 0
    291a:	e6 e2       	ldi	r30, 0x26	; 38
    291c:	f0 e0       	ldi	r31, 0x00	; 0
    291e:	80 81       	ld	r24, Z
    2920:	88 60       	ori	r24, 0x08	; 8
    2922:	8c 93       	st	X, r24
    2924:	02 c0       	rjmp	.+4      	; 0x292a <ADC_u8StartConversionAsync+0x9e>

		}
	}
	else
	{
		Local_ErrorState =BUSY_ERROR;
    2926:	82 e0       	ldi	r24, 0x02	; 2
    2928:	89 83       	std	Y+1, r24	; 0x01
	}
	return Local_ErrorState;
    292a:	89 81       	ldd	r24, Y+1	; 0x01
}
    292c:	26 96       	adiw	r28, 0x06	; 6
    292e:	0f b6       	in	r0, 0x3f	; 63
    2930:	f8 94       	cli
    2932:	de bf       	out	0x3e, r29	; 62
    2934:	0f be       	out	0x3f, r0	; 63
    2936:	cd bf       	out	0x3d, r28	; 61
    2938:	cf 91       	pop	r28
    293a:	df 91       	pop	r29
    293c:	08 95       	ret

0000293e <ADC_u8StartChainConversion>:


u8 ADC_u8StartChainConversion(Chain_t* Copy_Chain)
{
    293e:	df 93       	push	r29
    2940:	cf 93       	push	r28
    2942:	00 d0       	rcall	.+0      	; 0x2944 <ADC_u8StartChainConversion+0x6>
    2944:	0f 92       	push	r0
    2946:	cd b7       	in	r28, 0x3d	; 61
    2948:	de b7       	in	r29, 0x3e	; 62
    294a:	9b 83       	std	Y+3, r25	; 0x03
    294c:	8a 83       	std	Y+2, r24	; 0x02
	u8 Local_u8ErrorState=OK;
    294e:	19 82       	std	Y+1, r1	; 0x01
	if(Copy_Chain==NULL)
    2950:	8a 81       	ldd	r24, Y+2	; 0x02
    2952:	9b 81       	ldd	r25, Y+3	; 0x03
    2954:	00 97       	sbiw	r24, 0x00	; 0
    2956:	19 f4       	brne	.+6      	; 0x295e <ADC_u8StartChainConversion+0x20>
	{
		Local_u8ErrorState=NOK;
    2958:	81 e0       	ldi	r24, 0x01	; 1
    295a:	89 83       	std	Y+1, r24	; 0x01
    295c:	56 c0       	rjmp	.+172    	; 0x2a0a <ADC_u8StartChainConversion+0xcc>
	}
	else
	{
		if(Local_u8BusyState==IDLE)
    295e:	80 91 9d 01 	lds	r24, 0x019D
    2962:	88 23       	and	r24, r24
    2964:	09 f0       	breq	.+2      	; 0x2968 <ADC_u8StartChainConversion+0x2a>
    2966:	4f c0       	rjmp	.+158    	; 0x2a06 <ADC_u8StartChainConversion+0xc8>
		{


			Local_u8BusyState=BUSY;
    2968:	81 e0       	ldi	r24, 0x01	; 1
    296a:	80 93 9d 01 	sts	0x019D, r24

			ADC_u8ISRSource=ChainChannel;
    296e:	80 91 8b 01 	lds	r24, 0x018B
    2972:	80 93 a5 01 	sts	0x01A5, r24

			ADC_pu8ChainCannelArr=Copy_Chain->Channel;
    2976:	ea 81       	ldd	r30, Y+2	; 0x02
    2978:	fb 81       	ldd	r31, Y+3	; 0x03
    297a:	80 81       	ld	r24, Z
    297c:	91 81       	ldd	r25, Z+1	; 0x01
    297e:	90 93 9f 01 	sts	0x019F, r25
    2982:	80 93 9e 01 	sts	0x019E, r24
			ADC_pu16ChainResultArr=Copy_Chain->Result;
    2986:	ea 81       	ldd	r30, Y+2	; 0x02
    2988:	fb 81       	ldd	r31, Y+3	; 0x03
    298a:	82 81       	ldd	r24, Z+2	; 0x02
    298c:	93 81       	ldd	r25, Z+3	; 0x03
    298e:	90 93 a1 01 	sts	0x01A1, r25
    2992:	80 93 a0 01 	sts	0x01A0, r24
			ADC_u8ChainSize=Copy_Chain->Size;
    2996:	ea 81       	ldd	r30, Y+2	; 0x02
    2998:	fb 81       	ldd	r31, Y+3	; 0x03
    299a:	84 81       	ldd	r24, Z+4	; 0x04
    299c:	80 93 a3 01 	sts	0x01A3, r24
			ADC_pvCallBack=Copy_Chain->NotficationFunc;
    29a0:	ea 81       	ldd	r30, Y+2	; 0x02
    29a2:	fb 81       	ldd	r31, Y+3	; 0x03
    29a4:	85 81       	ldd	r24, Z+5	; 0x05
    29a6:	96 81       	ldd	r25, Z+6	; 0x06
    29a8:	90 93 9c 01 	sts	0x019C, r25
    29ac:	80 93 9b 01 	sts	0x019B, r24
			ADC_u8CahinIndex=0;
    29b0:	10 92 a4 01 	sts	0x01A4, r1

			/*Set Required Channel*/
			ADMUX &=0b11100000;
    29b4:	a7 e2       	ldi	r26, 0x27	; 39
    29b6:	b0 e0       	ldi	r27, 0x00	; 0
    29b8:	e7 e2       	ldi	r30, 0x27	; 39
    29ba:	f0 e0       	ldi	r31, 0x00	; 0
    29bc:	80 81       	ld	r24, Z
    29be:	80 7e       	andi	r24, 0xE0	; 224
    29c0:	8c 93       	st	X, r24
			ADMUX |=ADC_pu8ChainCannelArr[ADC_u8CahinIndex];
    29c2:	a7 e2       	ldi	r26, 0x27	; 39
    29c4:	b0 e0       	ldi	r27, 0x00	; 0
    29c6:	e7 e2       	ldi	r30, 0x27	; 39
    29c8:	f0 e0       	ldi	r31, 0x00	; 0
    29ca:	40 81       	ld	r20, Z
    29cc:	20 91 9e 01 	lds	r18, 0x019E
    29d0:	30 91 9f 01 	lds	r19, 0x019F
    29d4:	80 91 a4 01 	lds	r24, 0x01A4
    29d8:	88 2f       	mov	r24, r24
    29da:	90 e0       	ldi	r25, 0x00	; 0
    29dc:	f9 01       	movw	r30, r18
    29de:	e8 0f       	add	r30, r24
    29e0:	f9 1f       	adc	r31, r25
    29e2:	80 81       	ld	r24, Z
    29e4:	84 2b       	or	r24, r20
    29e6:	8c 93       	st	X, r24

			/*Start conversion*/
			SET_BIT(ADCSRA,ADCSRA_ADSC);
    29e8:	a6 e2       	ldi	r26, 0x26	; 38
    29ea:	b0 e0       	ldi	r27, 0x00	; 0
    29ec:	e6 e2       	ldi	r30, 0x26	; 38
    29ee:	f0 e0       	ldi	r31, 0x00	; 0
    29f0:	80 81       	ld	r24, Z
    29f2:	80 64       	ori	r24, 0x40	; 64
    29f4:	8c 93       	st	X, r24

			/*Enable INT*/
			SET_BIT(ADCSRA,ADCSRA_ADIE);
    29f6:	a6 e2       	ldi	r26, 0x26	; 38
    29f8:	b0 e0       	ldi	r27, 0x00	; 0
    29fa:	e6 e2       	ldi	r30, 0x26	; 38
    29fc:	f0 e0       	ldi	r31, 0x00	; 0
    29fe:	80 81       	ld	r24, Z
    2a00:	88 60       	ori	r24, 0x08	; 8
    2a02:	8c 93       	st	X, r24
    2a04:	02 c0       	rjmp	.+4      	; 0x2a0a <ADC_u8StartChainConversion+0xcc>
		}
		else
		{
			Local_u8ErrorState=BUSY_ERROR;
    2a06:	82 e0       	ldi	r24, 0x02	; 2
    2a08:	89 83       	std	Y+1, r24	; 0x01
		}
	}
	return Local_u8ErrorState;
    2a0a:	89 81       	ldd	r24, Y+1	; 0x01
}
    2a0c:	0f 90       	pop	r0
    2a0e:	0f 90       	pop	r0
    2a10:	0f 90       	pop	r0
    2a12:	cf 91       	pop	r28
    2a14:	df 91       	pop	r29
    2a16:	08 95       	ret

00002a18 <__vector_16>:


void __vector_16 (void) 	__attribute__((signal));
void __vector_16 (void)
{
    2a18:	1f 92       	push	r1
    2a1a:	0f 92       	push	r0
    2a1c:	0f b6       	in	r0, 0x3f	; 63
    2a1e:	0f 92       	push	r0
    2a20:	11 24       	eor	r1, r1
    2a22:	2f 93       	push	r18
    2a24:	3f 93       	push	r19
    2a26:	4f 93       	push	r20
    2a28:	5f 93       	push	r21
    2a2a:	6f 93       	push	r22
    2a2c:	7f 93       	push	r23
    2a2e:	8f 93       	push	r24
    2a30:	9f 93       	push	r25
    2a32:	af 93       	push	r26
    2a34:	bf 93       	push	r27
    2a36:	ef 93       	push	r30
    2a38:	ff 93       	push	r31
    2a3a:	df 93       	push	r29
    2a3c:	cf 93       	push	r28
    2a3e:	cd b7       	in	r28, 0x3d	; 61
    2a40:	de b7       	in	r29, 0x3e	; 62
	if(ADC_u8ISRSource==SingleChannelAsync)
    2a42:	90 91 a5 01 	lds	r25, 0x01A5
    2a46:	80 91 a2 01 	lds	r24, 0x01A2
    2a4a:	98 17       	cp	r25, r24
    2a4c:	b9 f4       	brne	.+46     	; 0x2a7c <__vector_16+0x64>
	{
		/*Read ADC result*/
#if ADC_ADJUST == ENABLE
		*ADC_pu8Reading =ADCH;
    2a4e:	a0 91 99 01 	lds	r26, 0x0199
    2a52:	b0 91 9a 01 	lds	r27, 0x019A
    2a56:	e5 e2       	ldi	r30, 0x25	; 37
    2a58:	f0 e0       	ldi	r31, 0x00	; 0
    2a5a:	80 81       	ld	r24, Z
    2a5c:	8c 93       	st	X, r24
		Local_ADCReading = (ADCL|(ADCH<<8));
		*ADC_pu8Reading=Local_ADCReading;

#endif

		Local_u8BusyState=IDLE;
    2a5e:	10 92 9d 01 	sts	0x019D, r1

		/*Call Back Notification FUNC*/
		ADC_pvCallBack();
    2a62:	e0 91 9b 01 	lds	r30, 0x019B
    2a66:	f0 91 9c 01 	lds	r31, 0x019C
    2a6a:	09 95       	icall

		/*Disable ADC INT*/
		CLR_BIT(ADCSRA,ADCSRA_ADIE);
    2a6c:	a6 e2       	ldi	r26, 0x26	; 38
    2a6e:	b0 e0       	ldi	r27, 0x00	; 0
    2a70:	e6 e2       	ldi	r30, 0x26	; 38
    2a72:	f0 e0       	ldi	r31, 0x00	; 0
    2a74:	80 81       	ld	r24, Z
    2a76:	87 7f       	andi	r24, 0xF7	; 247
    2a78:	8c 93       	st	X, r24
    2a7a:	57 c0       	rjmp	.+174    	; 0x2b2a <__vector_16+0x112>
	}
	else if(ADC_u8ISRSource==ChainChannel)
    2a7c:	90 91 a5 01 	lds	r25, 0x01A5
    2a80:	80 91 8b 01 	lds	r24, 0x018B
    2a84:	98 17       	cp	r25, r24
    2a86:	09 f0       	breq	.+2      	; 0x2a8a <__vector_16+0x72>
    2a88:	50 c0       	rjmp	.+160    	; 0x2b2a <__vector_16+0x112>
	{
#if ADC_ADJUST == ENABLE
		/*Read The current conversion*/
		ADC_pu16ChainResultArr[ADC_u8CahinIndex]= ADCH;
    2a8a:	20 91 a0 01 	lds	r18, 0x01A0
    2a8e:	30 91 a1 01 	lds	r19, 0x01A1
    2a92:	80 91 a4 01 	lds	r24, 0x01A4
    2a96:	88 2f       	mov	r24, r24
    2a98:	90 e0       	ldi	r25, 0x00	; 0
    2a9a:	88 0f       	add	r24, r24
    2a9c:	99 1f       	adc	r25, r25
    2a9e:	d9 01       	movw	r26, r18
    2aa0:	a8 0f       	add	r26, r24
    2aa2:	b9 1f       	adc	r27, r25
    2aa4:	e5 e2       	ldi	r30, 0x25	; 37
    2aa6:	f0 e0       	ldi	r31, 0x00	; 0
    2aa8:	80 81       	ld	r24, Z
    2aaa:	88 2f       	mov	r24, r24
    2aac:	90 e0       	ldi	r25, 0x00	; 0
    2aae:	11 96       	adiw	r26, 0x01	; 1
    2ab0:	9c 93       	st	X, r25
    2ab2:	8e 93       	st	-X, r24

		/*Increment Index*/
		ADC_u8CahinIndex++;
    2ab4:	80 91 a4 01 	lds	r24, 0x01A4
    2ab8:	8f 5f       	subi	r24, 0xFF	; 255
    2aba:	80 93 a4 01 	sts	0x01A4, r24

		/*Check Size*/
		if(ADC_u8CahinIndex==ADC_u8ChainSize)
    2abe:	90 91 a4 01 	lds	r25, 0x01A4
    2ac2:	80 91 a3 01 	lds	r24, 0x01A3
    2ac6:	98 17       	cp	r25, r24
    2ac8:	79 f4       	brne	.+30     	; 0x2ae8 <__vector_16+0xd0>
		{
			/*Chain is Done*/
			/*Raise IDLE Flag*/
			Local_u8BusyState=IDLE;
    2aca:	10 92 9d 01 	sts	0x019D, r1

			/*Excute NotificationFunc*/
			ADC_pvCallBack();
    2ace:	e0 91 9b 01 	lds	r30, 0x019B
    2ad2:	f0 91 9c 01 	lds	r31, 0x019C
    2ad6:	09 95       	icall

			/*Disable INT*/
			CLR_BIT(ADCSRA,ADCSRA_ADIE);
    2ad8:	a6 e2       	ldi	r26, 0x26	; 38
    2ada:	b0 e0       	ldi	r27, 0x00	; 0
    2adc:	e6 e2       	ldi	r30, 0x26	; 38
    2ade:	f0 e0       	ldi	r31, 0x00	; 0
    2ae0:	80 81       	ld	r24, Z
    2ae2:	87 7f       	andi	r24, 0xF7	; 247
    2ae4:	8c 93       	st	X, r24
    2ae6:	21 c0       	rjmp	.+66     	; 0x2b2a <__vector_16+0x112>
		}
		else
		{
			/*Chain is not Finished*/
			ADMUX &=0b11100000;
    2ae8:	a7 e2       	ldi	r26, 0x27	; 39
    2aea:	b0 e0       	ldi	r27, 0x00	; 0
    2aec:	e7 e2       	ldi	r30, 0x27	; 39
    2aee:	f0 e0       	ldi	r31, 0x00	; 0
    2af0:	80 81       	ld	r24, Z
    2af2:	80 7e       	andi	r24, 0xE0	; 224
    2af4:	8c 93       	st	X, r24
			ADMUX |=ADC_pu8ChainCannelArr[ADC_u8CahinIndex];
    2af6:	a7 e2       	ldi	r26, 0x27	; 39
    2af8:	b0 e0       	ldi	r27, 0x00	; 0
    2afa:	e7 e2       	ldi	r30, 0x27	; 39
    2afc:	f0 e0       	ldi	r31, 0x00	; 0
    2afe:	40 81       	ld	r20, Z
    2b00:	20 91 9e 01 	lds	r18, 0x019E
    2b04:	30 91 9f 01 	lds	r19, 0x019F
    2b08:	80 91 a4 01 	lds	r24, 0x01A4
    2b0c:	88 2f       	mov	r24, r24
    2b0e:	90 e0       	ldi	r25, 0x00	; 0
    2b10:	f9 01       	movw	r30, r18
    2b12:	e8 0f       	add	r30, r24
    2b14:	f9 1f       	adc	r31, r25
    2b16:	80 81       	ld	r24, Z
    2b18:	84 2b       	or	r24, r20
    2b1a:	8c 93       	st	X, r24

			/*Start Conversion*/
			SET_BIT(ADCSRA,ADCSRA_ADSC);
    2b1c:	a6 e2       	ldi	r26, 0x26	; 38
    2b1e:	b0 e0       	ldi	r27, 0x00	; 0
    2b20:	e6 e2       	ldi	r30, 0x26	; 38
    2b22:	f0 e0       	ldi	r31, 0x00	; 0
    2b24:	80 81       	ld	r24, Z
    2b26:	80 64       	ori	r24, 0x40	; 64
    2b28:	8c 93       	st	X, r24
			/*Start Conversion*/
			SET_BIT(ADCSRA,ADCSRA_ADSC);
		}
#endif
	}
}
    2b2a:	cf 91       	pop	r28
    2b2c:	df 91       	pop	r29
    2b2e:	ff 91       	pop	r31
    2b30:	ef 91       	pop	r30
    2b32:	bf 91       	pop	r27
    2b34:	af 91       	pop	r26
    2b36:	9f 91       	pop	r25
    2b38:	8f 91       	pop	r24
    2b3a:	7f 91       	pop	r23
    2b3c:	6f 91       	pop	r22
    2b3e:	5f 91       	pop	r21
    2b40:	4f 91       	pop	r20
    2b42:	3f 91       	pop	r19
    2b44:	2f 91       	pop	r18
    2b46:	0f 90       	pop	r0
    2b48:	0f be       	out	0x3f, r0	; 63
    2b4a:	0f 90       	pop	r0
    2b4c:	1f 90       	pop	r1
    2b4e:	18 95       	reti

00002b50 <GIE_voidEnable>:
/*********************************************************************************/
/*********************************************************************************/
#include "GIE_interface.h"

void GIE_voidEnable(void)
{
    2b50:	df 93       	push	r29
    2b52:	cf 93       	push	r28
    2b54:	cd b7       	in	r28, 0x3d	; 61
    2b56:	de b7       	in	r29, 0x3e	; 62
  SET_BIT(SREG,SREG_I);
    2b58:	af e5       	ldi	r26, 0x5F	; 95
    2b5a:	b0 e0       	ldi	r27, 0x00	; 0
    2b5c:	ef e5       	ldi	r30, 0x5F	; 95
    2b5e:	f0 e0       	ldi	r31, 0x00	; 0
    2b60:	80 81       	ld	r24, Z
    2b62:	80 68       	ori	r24, 0x80	; 128
    2b64:	8c 93       	st	X, r24
}
    2b66:	cf 91       	pop	r28
    2b68:	df 91       	pop	r29
    2b6a:	08 95       	ret

00002b6c <GIE_voidDisable>:
void GIE_voidDisable(void)
{
    2b6c:	df 93       	push	r29
    2b6e:	cf 93       	push	r28
    2b70:	cd b7       	in	r28, 0x3d	; 61
    2b72:	de b7       	in	r29, 0x3e	; 62
  CLR_BIT(SREG,SREG_I);
    2b74:	af e5       	ldi	r26, 0x5F	; 95
    2b76:	b0 e0       	ldi	r27, 0x00	; 0
    2b78:	ef e5       	ldi	r30, 0x5F	; 95
    2b7a:	f0 e0       	ldi	r31, 0x00	; 0
    2b7c:	80 81       	ld	r24, Z
    2b7e:	8f 77       	andi	r24, 0x7F	; 127
    2b80:	8c 93       	st	X, r24
}
    2b82:	cf 91       	pop	r28
    2b84:	df 91       	pop	r29
    2b86:	08 95       	ret

00002b88 <EXTI_voidINT0Init>:
void (*Int0Function)(void)= NULL ;
void (*Int1Function)(void)= NULL ;
void (*Int2Function)(void)= NULL ;

void EXTI_voidINT0Init(void)
{
    2b88:	df 93       	push	r29
    2b8a:	cf 93       	push	r28
    2b8c:	cd b7       	in	r28, 0x3d	; 61
    2b8e:	de b7       	in	r29, 0x3e	; 62


#if INT0_SENSE == FALLING_EDGE


	SET_BIT(MCUCR,MCUCR_ISC01);
    2b90:	a5 e5       	ldi	r26, 0x55	; 85
    2b92:	b0 e0       	ldi	r27, 0x00	; 0
    2b94:	e5 e5       	ldi	r30, 0x55	; 85
    2b96:	f0 e0       	ldi	r31, 0x00	; 0
    2b98:	80 81       	ld	r24, Z
    2b9a:	82 60       	ori	r24, 0x02	; 2
    2b9c:	8c 93       	st	X, r24
	CLR_BIT(MCUCR,MCUCR_ISC00);
    2b9e:	a5 e5       	ldi	r26, 0x55	; 85
    2ba0:	b0 e0       	ldi	r27, 0x00	; 0
    2ba2:	e5 e5       	ldi	r30, 0x55	; 85
    2ba4:	f0 e0       	ldi	r31, 0x00	; 0
    2ba6:	80 81       	ld	r24, Z
    2ba8:	8e 7f       	andi	r24, 0xFE	; 254
    2baa:	8c 93       	st	X, r24

#error "Wrong INT0_SENSE configuration option"
#endif

#if INT0_INITIAL == ENABLE
	SET_BIT(GICR,GICR_INT0);
    2bac:	ab e5       	ldi	r26, 0x5B	; 91
    2bae:	b0 e0       	ldi	r27, 0x00	; 0
    2bb0:	eb e5       	ldi	r30, 0x5B	; 91
    2bb2:	f0 e0       	ldi	r31, 0x00	; 0
    2bb4:	80 81       	ld	r24, Z
    2bb6:	80 64       	ori	r24, 0x40	; 64
    2bb8:	8c 93       	st	X, r24
#else

#error "Wrong INT0_INITIAL option"

#endif
}
    2bba:	cf 91       	pop	r28
    2bbc:	df 91       	pop	r29
    2bbe:	08 95       	ret

00002bc0 <EXTI_voidINT1Init>:
void EXTI_voidINT1Init(void)
{
    2bc0:	df 93       	push	r29
    2bc2:	cf 93       	push	r28
    2bc4:	cd b7       	in	r28, 0x3d	; 61
    2bc6:	de b7       	in	r29, 0x3e	; 62
	 *for any change   ISC10=1 , ISC11=0
	 *for rising edge  ISC10=1 , ISC11=1*/
#if INT1_SENSE == FALLING_EDGE


	SET_BIT(MCUCR,MCUCR_ISC11);
    2bc8:	a5 e5       	ldi	r26, 0x55	; 85
    2bca:	b0 e0       	ldi	r27, 0x00	; 0
    2bcc:	e5 e5       	ldi	r30, 0x55	; 85
    2bce:	f0 e0       	ldi	r31, 0x00	; 0
    2bd0:	80 81       	ld	r24, Z
    2bd2:	88 60       	ori	r24, 0x08	; 8
    2bd4:	8c 93       	st	X, r24
	CLR_BIT(MCUCR,MCUCR_ISC10);
    2bd6:	a5 e5       	ldi	r26, 0x55	; 85
    2bd8:	b0 e0       	ldi	r27, 0x00	; 0
    2bda:	e5 e5       	ldi	r30, 0x55	; 85
    2bdc:	f0 e0       	ldi	r31, 0x00	; 0
    2bde:	80 81       	ld	r24, Z
    2be0:	8b 7f       	andi	r24, 0xFB	; 251
    2be2:	8c 93       	st	X, r24
#error "Wrong INT1_SENSE configuration option"

#endif

#if INT1_INITIAL == ENABLE
	SET_BIT(GICR,GICR_INT1);
    2be4:	ab e5       	ldi	r26, 0x5B	; 91
    2be6:	b0 e0       	ldi	r27, 0x00	; 0
    2be8:	eb e5       	ldi	r30, 0x5B	; 91
    2bea:	f0 e0       	ldi	r31, 0x00	; 0
    2bec:	80 81       	ld	r24, Z
    2bee:	80 68       	ori	r24, 0x80	; 128
    2bf0:	8c 93       	st	X, r24
#else

#error "Wrong INT1_INITIAL option"

#endif
}
    2bf2:	cf 91       	pop	r28
    2bf4:	df 91       	pop	r29
    2bf6:	08 95       	ret

00002bf8 <EXTI_voidINT2Init>:
void EXTI_voidINT2Init(void)
{
    2bf8:	df 93       	push	r29
    2bfa:	cf 93       	push	r28
    2bfc:	cd b7       	in	r28, 0x3d	; 61
    2bfe:	de b7       	in	r29, 0x3e	; 62
	/*Set sense control for INT0*/
	/*for falling edge write 0 && for rising edge write 1*/
#if INT2_SENSE == FALLING_EDGE
	CLR_BIT(MCUCSR,MCUCSR_INT2);
    2c00:	a4 e5       	ldi	r26, 0x54	; 84
    2c02:	b0 e0       	ldi	r27, 0x00	; 0
    2c04:	e4 e5       	ldi	r30, 0x54	; 84
    2c06:	f0 e0       	ldi	r31, 0x00	; 0
    2c08:	80 81       	ld	r24, Z
    2c0a:	8f 7b       	andi	r24, 0xBF	; 191
    2c0c:	8c 93       	st	X, r24
	SET_BIT(MCUCSR,MCUCSR_INT2);
#else
#error "Wrong INT2_SENSE OPTION"
#endif
#if INT2_INITIAL == ENABLE
	SET_BIT(GICR,GICR_INT2);
    2c0e:	ab e5       	ldi	r26, 0x5B	; 91
    2c10:	b0 e0       	ldi	r27, 0x00	; 0
    2c12:	eb e5       	ldi	r30, 0x5B	; 91
    2c14:	f0 e0       	ldi	r31, 0x00	; 0
    2c16:	80 81       	ld	r24, Z
    2c18:	80 62       	ori	r24, 0x20	; 32
    2c1a:	8c 93       	st	X, r24
#else

#error "Wrong INT2_INITIAL option"

#endif
}
    2c1c:	cf 91       	pop	r28
    2c1e:	df 91       	pop	r29
    2c20:	08 95       	ret

00002c22 <EXTI_u8IntSetSenseControl>:

u8 EXTI_u8IntSetSenseControl(u8 Copy_u8INT,u8 Copy_u8Sense)
{
    2c22:	df 93       	push	r29
    2c24:	cf 93       	push	r28
    2c26:	cd b7       	in	r28, 0x3d	; 61
    2c28:	de b7       	in	r29, 0x3e	; 62
    2c2a:	29 97       	sbiw	r28, 0x09	; 9
    2c2c:	0f b6       	in	r0, 0x3f	; 63
    2c2e:	f8 94       	cli
    2c30:	de bf       	out	0x3e, r29	; 62
    2c32:	0f be       	out	0x3f, r0	; 63
    2c34:	cd bf       	out	0x3d, r28	; 61
    2c36:	8a 83       	std	Y+2, r24	; 0x02
    2c38:	6b 83       	std	Y+3, r22	; 0x03
	u8 Local_u8ErrorState = 0 ;
    2c3a:	19 82       	std	Y+1, r1	; 0x01
	if(Copy_u8INT==INT0)
    2c3c:	8a 81       	ldd	r24, Y+2	; 0x02
    2c3e:	81 30       	cpi	r24, 0x01	; 1
    2c40:	09 f0       	breq	.+2      	; 0x2c44 <EXTI_u8IntSetSenseControl+0x22>
    2c42:	5f c0       	rjmp	.+190    	; 0x2d02 <EXTI_u8IntSetSenseControl+0xe0>
	{
		switch(Copy_u8Sense)
    2c44:	8b 81       	ldd	r24, Y+3	; 0x03
    2c46:	28 2f       	mov	r18, r24
    2c48:	30 e0       	ldi	r19, 0x00	; 0
    2c4a:	39 87       	std	Y+9, r19	; 0x09
    2c4c:	28 87       	std	Y+8, r18	; 0x08
    2c4e:	88 85       	ldd	r24, Y+8	; 0x08
    2c50:	99 85       	ldd	r25, Y+9	; 0x09
    2c52:	82 30       	cpi	r24, 0x02	; 2
    2c54:	91 05       	cpc	r25, r1
    2c56:	29 f1       	breq	.+74     	; 0x2ca2 <EXTI_u8IntSetSenseControl+0x80>
    2c58:	28 85       	ldd	r18, Y+8	; 0x08
    2c5a:	39 85       	ldd	r19, Y+9	; 0x09
    2c5c:	23 30       	cpi	r18, 0x03	; 3
    2c5e:	31 05       	cpc	r19, r1
    2c60:	34 f4       	brge	.+12     	; 0x2c6e <EXTI_u8IntSetSenseControl+0x4c>
    2c62:	88 85       	ldd	r24, Y+8	; 0x08
    2c64:	99 85       	ldd	r25, Y+9	; 0x09
    2c66:	81 30       	cpi	r24, 0x01	; 1
    2c68:	91 05       	cpc	r25, r1
    2c6a:	61 f0       	breq	.+24     	; 0x2c84 <EXTI_u8IntSetSenseControl+0x62>
    2c6c:	47 c0       	rjmp	.+142    	; 0x2cfc <EXTI_u8IntSetSenseControl+0xda>
    2c6e:	28 85       	ldd	r18, Y+8	; 0x08
    2c70:	39 85       	ldd	r19, Y+9	; 0x09
    2c72:	23 30       	cpi	r18, 0x03	; 3
    2c74:	31 05       	cpc	r19, r1
    2c76:	99 f1       	breq	.+102    	; 0x2cde <EXTI_u8IntSetSenseControl+0xbc>
    2c78:	88 85       	ldd	r24, Y+8	; 0x08
    2c7a:	99 85       	ldd	r25, Y+9	; 0x09
    2c7c:	84 30       	cpi	r24, 0x04	; 4
    2c7e:	91 05       	cpc	r25, r1
    2c80:	f9 f0       	breq	.+62     	; 0x2cc0 <EXTI_u8IntSetSenseControl+0x9e>
    2c82:	3c c0       	rjmp	.+120    	; 0x2cfc <EXTI_u8IntSetSenseControl+0xda>
		{
		case LOW_LEVEL :
			CLR_BIT(MCUCR,MCUCR_ISC01);
    2c84:	a5 e5       	ldi	r26, 0x55	; 85
    2c86:	b0 e0       	ldi	r27, 0x00	; 0
    2c88:	e5 e5       	ldi	r30, 0x55	; 85
    2c8a:	f0 e0       	ldi	r31, 0x00	; 0
    2c8c:	80 81       	ld	r24, Z
    2c8e:	8d 7f       	andi	r24, 0xFD	; 253
    2c90:	8c 93       	st	X, r24
			CLR_BIT(MCUCR,MCUCR_ISC00);
    2c92:	a5 e5       	ldi	r26, 0x55	; 85
    2c94:	b0 e0       	ldi	r27, 0x00	; 0
    2c96:	e5 e5       	ldi	r30, 0x55	; 85
    2c98:	f0 e0       	ldi	r31, 0x00	; 0
    2c9a:	80 81       	ld	r24, Z
    2c9c:	8e 7f       	andi	r24, 0xFE	; 254
    2c9e:	8c 93       	st	X, r24
    2ca0:	ba c0       	rjmp	.+372    	; 0x2e16 <EXTI_u8IntSetSenseControl+0x1f4>
			break;

		case ON_CHANGE :
			CLR_BIT(MCUCR,MCUCR_ISC01);
    2ca2:	a5 e5       	ldi	r26, 0x55	; 85
    2ca4:	b0 e0       	ldi	r27, 0x00	; 0
    2ca6:	e5 e5       	ldi	r30, 0x55	; 85
    2ca8:	f0 e0       	ldi	r31, 0x00	; 0
    2caa:	80 81       	ld	r24, Z
    2cac:	8d 7f       	andi	r24, 0xFD	; 253
    2cae:	8c 93       	st	X, r24
			SET_BIT(MCUCR,MCUCR_ISC00);
    2cb0:	a5 e5       	ldi	r26, 0x55	; 85
    2cb2:	b0 e0       	ldi	r27, 0x00	; 0
    2cb4:	e5 e5       	ldi	r30, 0x55	; 85
    2cb6:	f0 e0       	ldi	r31, 0x00	; 0
    2cb8:	80 81       	ld	r24, Z
    2cba:	81 60       	ori	r24, 0x01	; 1
    2cbc:	8c 93       	st	X, r24
    2cbe:	ab c0       	rjmp	.+342    	; 0x2e16 <EXTI_u8IntSetSenseControl+0x1f4>
			break;

		case RISING_EDGE :
			SET_BIT(MCUCR,MCUCR_ISC01);
    2cc0:	a5 e5       	ldi	r26, 0x55	; 85
    2cc2:	b0 e0       	ldi	r27, 0x00	; 0
    2cc4:	e5 e5       	ldi	r30, 0x55	; 85
    2cc6:	f0 e0       	ldi	r31, 0x00	; 0
    2cc8:	80 81       	ld	r24, Z
    2cca:	82 60       	ori	r24, 0x02	; 2
    2ccc:	8c 93       	st	X, r24
			SET_BIT(MCUCR,MCUCR_ISC00);
    2cce:	a5 e5       	ldi	r26, 0x55	; 85
    2cd0:	b0 e0       	ldi	r27, 0x00	; 0
    2cd2:	e5 e5       	ldi	r30, 0x55	; 85
    2cd4:	f0 e0       	ldi	r31, 0x00	; 0
    2cd6:	80 81       	ld	r24, Z
    2cd8:	81 60       	ori	r24, 0x01	; 1
    2cda:	8c 93       	st	X, r24
    2cdc:	9c c0       	rjmp	.+312    	; 0x2e16 <EXTI_u8IntSetSenseControl+0x1f4>
			break;

		case FALLING_EDGE :
			SET_BIT(MCUCR,MCUCR_ISC01);
    2cde:	a5 e5       	ldi	r26, 0x55	; 85
    2ce0:	b0 e0       	ldi	r27, 0x00	; 0
    2ce2:	e5 e5       	ldi	r30, 0x55	; 85
    2ce4:	f0 e0       	ldi	r31, 0x00	; 0
    2ce6:	80 81       	ld	r24, Z
    2ce8:	82 60       	ori	r24, 0x02	; 2
    2cea:	8c 93       	st	X, r24
			CLR_BIT(MCUCR,MCUCR_ISC00);
    2cec:	a5 e5       	ldi	r26, 0x55	; 85
    2cee:	b0 e0       	ldi	r27, 0x00	; 0
    2cf0:	e5 e5       	ldi	r30, 0x55	; 85
    2cf2:	f0 e0       	ldi	r31, 0x00	; 0
    2cf4:	80 81       	ld	r24, Z
    2cf6:	8e 7f       	andi	r24, 0xFE	; 254
    2cf8:	8c 93       	st	X, r24
    2cfa:	8d c0       	rjmp	.+282    	; 0x2e16 <EXTI_u8IntSetSenseControl+0x1f4>
			break;

		default:
			Local_u8ErrorState = 1;
    2cfc:	81 e0       	ldi	r24, 0x01	; 1
    2cfe:	89 83       	std	Y+1, r24	; 0x01
    2d00:	8a c0       	rjmp	.+276    	; 0x2e16 <EXTI_u8IntSetSenseControl+0x1f4>
			break;
		}
	}
	else if(Copy_u8INT==INT1)
    2d02:	8a 81       	ldd	r24, Y+2	; 0x02
    2d04:	82 30       	cpi	r24, 0x02	; 2
    2d06:	09 f0       	breq	.+2      	; 0x2d0a <EXTI_u8IntSetSenseControl+0xe8>
    2d08:	5f c0       	rjmp	.+190    	; 0x2dc8 <EXTI_u8IntSetSenseControl+0x1a6>
	{
		switch(Copy_u8Sense)
    2d0a:	8b 81       	ldd	r24, Y+3	; 0x03
    2d0c:	28 2f       	mov	r18, r24
    2d0e:	30 e0       	ldi	r19, 0x00	; 0
    2d10:	3f 83       	std	Y+7, r19	; 0x07
    2d12:	2e 83       	std	Y+6, r18	; 0x06
    2d14:	8e 81       	ldd	r24, Y+6	; 0x06
    2d16:	9f 81       	ldd	r25, Y+7	; 0x07
    2d18:	82 30       	cpi	r24, 0x02	; 2
    2d1a:	91 05       	cpc	r25, r1
    2d1c:	29 f1       	breq	.+74     	; 0x2d68 <EXTI_u8IntSetSenseControl+0x146>
    2d1e:	2e 81       	ldd	r18, Y+6	; 0x06
    2d20:	3f 81       	ldd	r19, Y+7	; 0x07
    2d22:	23 30       	cpi	r18, 0x03	; 3
    2d24:	31 05       	cpc	r19, r1
    2d26:	34 f4       	brge	.+12     	; 0x2d34 <EXTI_u8IntSetSenseControl+0x112>
    2d28:	8e 81       	ldd	r24, Y+6	; 0x06
    2d2a:	9f 81       	ldd	r25, Y+7	; 0x07
    2d2c:	81 30       	cpi	r24, 0x01	; 1
    2d2e:	91 05       	cpc	r25, r1
    2d30:	61 f0       	breq	.+24     	; 0x2d4a <EXTI_u8IntSetSenseControl+0x128>
    2d32:	47 c0       	rjmp	.+142    	; 0x2dc2 <EXTI_u8IntSetSenseControl+0x1a0>
    2d34:	2e 81       	ldd	r18, Y+6	; 0x06
    2d36:	3f 81       	ldd	r19, Y+7	; 0x07
    2d38:	23 30       	cpi	r18, 0x03	; 3
    2d3a:	31 05       	cpc	r19, r1
    2d3c:	99 f1       	breq	.+102    	; 0x2da4 <EXTI_u8IntSetSenseControl+0x182>
    2d3e:	8e 81       	ldd	r24, Y+6	; 0x06
    2d40:	9f 81       	ldd	r25, Y+7	; 0x07
    2d42:	84 30       	cpi	r24, 0x04	; 4
    2d44:	91 05       	cpc	r25, r1
    2d46:	f9 f0       	breq	.+62     	; 0x2d86 <EXTI_u8IntSetSenseControl+0x164>
    2d48:	3c c0       	rjmp	.+120    	; 0x2dc2 <EXTI_u8IntSetSenseControl+0x1a0>
		{
		case LOW_LEVEL :
			CLR_BIT(MCUCR,MCUCR_ISC10);
    2d4a:	a5 e5       	ldi	r26, 0x55	; 85
    2d4c:	b0 e0       	ldi	r27, 0x00	; 0
    2d4e:	e5 e5       	ldi	r30, 0x55	; 85
    2d50:	f0 e0       	ldi	r31, 0x00	; 0
    2d52:	80 81       	ld	r24, Z
    2d54:	8b 7f       	andi	r24, 0xFB	; 251
    2d56:	8c 93       	st	X, r24
			CLR_BIT(MCUCR,MCUCR_ISC11);
    2d58:	a5 e5       	ldi	r26, 0x55	; 85
    2d5a:	b0 e0       	ldi	r27, 0x00	; 0
    2d5c:	e5 e5       	ldi	r30, 0x55	; 85
    2d5e:	f0 e0       	ldi	r31, 0x00	; 0
    2d60:	80 81       	ld	r24, Z
    2d62:	87 7f       	andi	r24, 0xF7	; 247
    2d64:	8c 93       	st	X, r24
    2d66:	57 c0       	rjmp	.+174    	; 0x2e16 <EXTI_u8IntSetSenseControl+0x1f4>
			break;

		case ON_CHANGE :
			CLR_BIT(MCUCR,MCUCR_ISC11);
    2d68:	a5 e5       	ldi	r26, 0x55	; 85
    2d6a:	b0 e0       	ldi	r27, 0x00	; 0
    2d6c:	e5 e5       	ldi	r30, 0x55	; 85
    2d6e:	f0 e0       	ldi	r31, 0x00	; 0
    2d70:	80 81       	ld	r24, Z
    2d72:	87 7f       	andi	r24, 0xF7	; 247
    2d74:	8c 93       	st	X, r24
			SET_BIT(MCUCR,MCUCR_ISC10);
    2d76:	a5 e5       	ldi	r26, 0x55	; 85
    2d78:	b0 e0       	ldi	r27, 0x00	; 0
    2d7a:	e5 e5       	ldi	r30, 0x55	; 85
    2d7c:	f0 e0       	ldi	r31, 0x00	; 0
    2d7e:	80 81       	ld	r24, Z
    2d80:	84 60       	ori	r24, 0x04	; 4
    2d82:	8c 93       	st	X, r24
    2d84:	48 c0       	rjmp	.+144    	; 0x2e16 <EXTI_u8IntSetSenseControl+0x1f4>
			break;

		case RISING_EDGE :
			SET_BIT(MCUCR,MCUCR_ISC10);
    2d86:	a5 e5       	ldi	r26, 0x55	; 85
    2d88:	b0 e0       	ldi	r27, 0x00	; 0
    2d8a:	e5 e5       	ldi	r30, 0x55	; 85
    2d8c:	f0 e0       	ldi	r31, 0x00	; 0
    2d8e:	80 81       	ld	r24, Z
    2d90:	84 60       	ori	r24, 0x04	; 4
    2d92:	8c 93       	st	X, r24
			SET_BIT(MCUCR,MCUCR_ISC11);
    2d94:	a5 e5       	ldi	r26, 0x55	; 85
    2d96:	b0 e0       	ldi	r27, 0x00	; 0
    2d98:	e5 e5       	ldi	r30, 0x55	; 85
    2d9a:	f0 e0       	ldi	r31, 0x00	; 0
    2d9c:	80 81       	ld	r24, Z
    2d9e:	88 60       	ori	r24, 0x08	; 8
    2da0:	8c 93       	st	X, r24
    2da2:	39 c0       	rjmp	.+114    	; 0x2e16 <EXTI_u8IntSetSenseControl+0x1f4>
			break;

		case FALLING_EDGE :
			SET_BIT(MCUCR,MCUCR_ISC11);
    2da4:	a5 e5       	ldi	r26, 0x55	; 85
    2da6:	b0 e0       	ldi	r27, 0x00	; 0
    2da8:	e5 e5       	ldi	r30, 0x55	; 85
    2daa:	f0 e0       	ldi	r31, 0x00	; 0
    2dac:	80 81       	ld	r24, Z
    2dae:	88 60       	ori	r24, 0x08	; 8
    2db0:	8c 93       	st	X, r24
			CLR_BIT(MCUCR,MCUCR_ISC10);
    2db2:	a5 e5       	ldi	r26, 0x55	; 85
    2db4:	b0 e0       	ldi	r27, 0x00	; 0
    2db6:	e5 e5       	ldi	r30, 0x55	; 85
    2db8:	f0 e0       	ldi	r31, 0x00	; 0
    2dba:	80 81       	ld	r24, Z
    2dbc:	8b 7f       	andi	r24, 0xFB	; 251
    2dbe:	8c 93       	st	X, r24
    2dc0:	2a c0       	rjmp	.+84     	; 0x2e16 <EXTI_u8IntSetSenseControl+0x1f4>
			break;

		default:
			Local_u8ErrorState = 1;
    2dc2:	81 e0       	ldi	r24, 0x01	; 1
    2dc4:	89 83       	std	Y+1, r24	; 0x01
    2dc6:	27 c0       	rjmp	.+78     	; 0x2e16 <EXTI_u8IntSetSenseControl+0x1f4>
			break;
		}


	}
	else if(Copy_u8INT==INT2)
    2dc8:	8a 81       	ldd	r24, Y+2	; 0x02
    2dca:	83 30       	cpi	r24, 0x03	; 3
    2dcc:	11 f5       	brne	.+68     	; 0x2e12 <EXTI_u8IntSetSenseControl+0x1f0>
	{
		switch(Copy_u8Sense)
    2dce:	8b 81       	ldd	r24, Y+3	; 0x03
    2dd0:	28 2f       	mov	r18, r24
    2dd2:	30 e0       	ldi	r19, 0x00	; 0
    2dd4:	3d 83       	std	Y+5, r19	; 0x05
    2dd6:	2c 83       	std	Y+4, r18	; 0x04
    2dd8:	8c 81       	ldd	r24, Y+4	; 0x04
    2dda:	9d 81       	ldd	r25, Y+5	; 0x05
    2ddc:	83 30       	cpi	r24, 0x03	; 3
    2dde:	91 05       	cpc	r25, r1
    2de0:	69 f0       	breq	.+26     	; 0x2dfc <EXTI_u8IntSetSenseControl+0x1da>
    2de2:	2c 81       	ldd	r18, Y+4	; 0x04
    2de4:	3d 81       	ldd	r19, Y+5	; 0x05
    2de6:	24 30       	cpi	r18, 0x04	; 4
    2de8:	31 05       	cpc	r19, r1
    2dea:	81 f4       	brne	.+32     	; 0x2e0c <EXTI_u8IntSetSenseControl+0x1ea>
		{
		case RISING_EDGE :
			SET_BIT(MCUCSR,MCUCSR_INT2);
    2dec:	a4 e5       	ldi	r26, 0x54	; 84
    2dee:	b0 e0       	ldi	r27, 0x00	; 0
    2df0:	e4 e5       	ldi	r30, 0x54	; 84
    2df2:	f0 e0       	ldi	r31, 0x00	; 0
    2df4:	80 81       	ld	r24, Z
    2df6:	80 64       	ori	r24, 0x40	; 64
    2df8:	8c 93       	st	X, r24
    2dfa:	0d c0       	rjmp	.+26     	; 0x2e16 <EXTI_u8IntSetSenseControl+0x1f4>
			break;

		case FALLING_EDGE :
			CLR_BIT(MCUCSR,MCUCSR_INT2);
    2dfc:	a4 e5       	ldi	r26, 0x54	; 84
    2dfe:	b0 e0       	ldi	r27, 0x00	; 0
    2e00:	e4 e5       	ldi	r30, 0x54	; 84
    2e02:	f0 e0       	ldi	r31, 0x00	; 0
    2e04:	80 81       	ld	r24, Z
    2e06:	8f 7b       	andi	r24, 0xBF	; 191
    2e08:	8c 93       	st	X, r24
    2e0a:	05 c0       	rjmp	.+10     	; 0x2e16 <EXTI_u8IntSetSenseControl+0x1f4>
			break;

		default:
			Local_u8ErrorState = 1;
    2e0c:	81 e0       	ldi	r24, 0x01	; 1
    2e0e:	89 83       	std	Y+1, r24	; 0x01
    2e10:	02 c0       	rjmp	.+4      	; 0x2e16 <EXTI_u8IntSetSenseControl+0x1f4>
			break;
		}
	}
	else
	{
		Local_u8ErrorState=1;
    2e12:	81 e0       	ldi	r24, 0x01	; 1
    2e14:	89 83       	std	Y+1, r24	; 0x01
	}

	return Local_u8ErrorState;
    2e16:	89 81       	ldd	r24, Y+1	; 0x01
}
    2e18:	29 96       	adiw	r28, 0x09	; 9
    2e1a:	0f b6       	in	r0, 0x3f	; 63
    2e1c:	f8 94       	cli
    2e1e:	de bf       	out	0x3e, r29	; 62
    2e20:	0f be       	out	0x3f, r0	; 63
    2e22:	cd bf       	out	0x3d, r28	; 61
    2e24:	cf 91       	pop	r28
    2e26:	df 91       	pop	r29
    2e28:	08 95       	ret

00002e2a <EXTI_u8IntEnable>:

u8 EXTI_u8IntEnable(u8 Copy_u8INT,u8 Copy_u8E)
{
    2e2a:	df 93       	push	r29
    2e2c:	cf 93       	push	r28
    2e2e:	cd b7       	in	r28, 0x3d	; 61
    2e30:	de b7       	in	r29, 0x3e	; 62
    2e32:	29 97       	sbiw	r28, 0x09	; 9
    2e34:	0f b6       	in	r0, 0x3f	; 63
    2e36:	f8 94       	cli
    2e38:	de bf       	out	0x3e, r29	; 62
    2e3a:	0f be       	out	0x3f, r0	; 63
    2e3c:	cd bf       	out	0x3d, r28	; 61
    2e3e:	8a 83       	std	Y+2, r24	; 0x02
    2e40:	6b 83       	std	Y+3, r22	; 0x03
	u8 Local_u8ErrorState=0;
    2e42:	19 82       	std	Y+1, r1	; 0x01

	if(Copy_u8INT==INT0)
    2e44:	8a 81       	ldd	r24, Y+2	; 0x02
    2e46:	81 30       	cpi	r24, 0x01	; 1
    2e48:	19 f5       	brne	.+70     	; 0x2e90 <EXTI_u8IntEnable+0x66>
	{
		switch(Copy_u8E)
    2e4a:	8b 81       	ldd	r24, Y+3	; 0x03
    2e4c:	28 2f       	mov	r18, r24
    2e4e:	30 e0       	ldi	r19, 0x00	; 0
    2e50:	39 87       	std	Y+9, r19	; 0x09
    2e52:	28 87       	std	Y+8, r18	; 0x08
    2e54:	88 85       	ldd	r24, Y+8	; 0x08
    2e56:	99 85       	ldd	r25, Y+9	; 0x09
    2e58:	81 30       	cpi	r24, 0x01	; 1
    2e5a:	91 05       	cpc	r25, r1
    2e5c:	31 f0       	breq	.+12     	; 0x2e6a <EXTI_u8IntEnable+0x40>
    2e5e:	28 85       	ldd	r18, Y+8	; 0x08
    2e60:	39 85       	ldd	r19, Y+9	; 0x09
    2e62:	22 30       	cpi	r18, 0x02	; 2
    2e64:	31 05       	cpc	r19, r1
    2e66:	49 f0       	breq	.+18     	; 0x2e7a <EXTI_u8IntEnable+0x50>
    2e68:	10 c0       	rjmp	.+32     	; 0x2e8a <EXTI_u8IntEnable+0x60>
		{
		case ENABLE : SET_BIT(GICR,GICR_INT0);
    2e6a:	ab e5       	ldi	r26, 0x5B	; 91
    2e6c:	b0 e0       	ldi	r27, 0x00	; 0
    2e6e:	eb e5       	ldi	r30, 0x5B	; 91
    2e70:	f0 e0       	ldi	r31, 0x00	; 0
    2e72:	80 81       	ld	r24, Z
    2e74:	80 64       	ori	r24, 0x40	; 64
    2e76:	8c 93       	st	X, r24
    2e78:	59 c0       	rjmp	.+178    	; 0x2f2c <EXTI_u8IntEnable+0x102>
		break;
		case DISABLE: CLR_BIT(GICR,GICR_INT0);
    2e7a:	ab e5       	ldi	r26, 0x5B	; 91
    2e7c:	b0 e0       	ldi	r27, 0x00	; 0
    2e7e:	eb e5       	ldi	r30, 0x5B	; 91
    2e80:	f0 e0       	ldi	r31, 0x00	; 0
    2e82:	80 81       	ld	r24, Z
    2e84:	8f 7b       	andi	r24, 0xBF	; 191
    2e86:	8c 93       	st	X, r24
    2e88:	51 c0       	rjmp	.+162    	; 0x2f2c <EXTI_u8IntEnable+0x102>
		break;
		default :     Local_u8ErrorState=1;
    2e8a:	81 e0       	ldi	r24, 0x01	; 1
    2e8c:	89 83       	std	Y+1, r24	; 0x01
    2e8e:	4e c0       	rjmp	.+156    	; 0x2f2c <EXTI_u8IntEnable+0x102>
		break;
		}
	}


	else if(Copy_u8INT==INT1)
    2e90:	8a 81       	ldd	r24, Y+2	; 0x02
    2e92:	82 30       	cpi	r24, 0x02	; 2
    2e94:	19 f5       	brne	.+70     	; 0x2edc <EXTI_u8IntEnable+0xb2>
	{
		switch(Copy_u8E)
    2e96:	8b 81       	ldd	r24, Y+3	; 0x03
    2e98:	28 2f       	mov	r18, r24
    2e9a:	30 e0       	ldi	r19, 0x00	; 0
    2e9c:	3f 83       	std	Y+7, r19	; 0x07
    2e9e:	2e 83       	std	Y+6, r18	; 0x06
    2ea0:	8e 81       	ldd	r24, Y+6	; 0x06
    2ea2:	9f 81       	ldd	r25, Y+7	; 0x07
    2ea4:	81 30       	cpi	r24, 0x01	; 1
    2ea6:	91 05       	cpc	r25, r1
    2ea8:	31 f0       	breq	.+12     	; 0x2eb6 <EXTI_u8IntEnable+0x8c>
    2eaa:	2e 81       	ldd	r18, Y+6	; 0x06
    2eac:	3f 81       	ldd	r19, Y+7	; 0x07
    2eae:	22 30       	cpi	r18, 0x02	; 2
    2eb0:	31 05       	cpc	r19, r1
    2eb2:	49 f0       	breq	.+18     	; 0x2ec6 <EXTI_u8IntEnable+0x9c>
    2eb4:	10 c0       	rjmp	.+32     	; 0x2ed6 <EXTI_u8IntEnable+0xac>
		{
		case ENABLE : SET_BIT(GICR,GICR_INT1);
    2eb6:	ab e5       	ldi	r26, 0x5B	; 91
    2eb8:	b0 e0       	ldi	r27, 0x00	; 0
    2eba:	eb e5       	ldi	r30, 0x5B	; 91
    2ebc:	f0 e0       	ldi	r31, 0x00	; 0
    2ebe:	80 81       	ld	r24, Z
    2ec0:	80 68       	ori	r24, 0x80	; 128
    2ec2:	8c 93       	st	X, r24
    2ec4:	33 c0       	rjmp	.+102    	; 0x2f2c <EXTI_u8IntEnable+0x102>
		break;
		case DISABLE: CLR_BIT(GICR,GICR_INT1);
    2ec6:	ab e5       	ldi	r26, 0x5B	; 91
    2ec8:	b0 e0       	ldi	r27, 0x00	; 0
    2eca:	eb e5       	ldi	r30, 0x5B	; 91
    2ecc:	f0 e0       	ldi	r31, 0x00	; 0
    2ece:	80 81       	ld	r24, Z
    2ed0:	8f 77       	andi	r24, 0x7F	; 127
    2ed2:	8c 93       	st	X, r24
    2ed4:	2b c0       	rjmp	.+86     	; 0x2f2c <EXTI_u8IntEnable+0x102>
		break;
		default : Local_u8ErrorState=1;
    2ed6:	81 e0       	ldi	r24, 0x01	; 1
    2ed8:	89 83       	std	Y+1, r24	; 0x01
    2eda:	28 c0       	rjmp	.+80     	; 0x2f2c <EXTI_u8IntEnable+0x102>
		break;
		}
	}


	else if(Copy_u8INT==INT2)
    2edc:	8a 81       	ldd	r24, Y+2	; 0x02
    2ede:	83 30       	cpi	r24, 0x03	; 3
    2ee0:	19 f5       	brne	.+70     	; 0x2f28 <EXTI_u8IntEnable+0xfe>
	{
		switch(Copy_u8E)
    2ee2:	8b 81       	ldd	r24, Y+3	; 0x03
    2ee4:	28 2f       	mov	r18, r24
    2ee6:	30 e0       	ldi	r19, 0x00	; 0
    2ee8:	3d 83       	std	Y+5, r19	; 0x05
    2eea:	2c 83       	std	Y+4, r18	; 0x04
    2eec:	8c 81       	ldd	r24, Y+4	; 0x04
    2eee:	9d 81       	ldd	r25, Y+5	; 0x05
    2ef0:	81 30       	cpi	r24, 0x01	; 1
    2ef2:	91 05       	cpc	r25, r1
    2ef4:	31 f0       	breq	.+12     	; 0x2f02 <EXTI_u8IntEnable+0xd8>
    2ef6:	2c 81       	ldd	r18, Y+4	; 0x04
    2ef8:	3d 81       	ldd	r19, Y+5	; 0x05
    2efa:	22 30       	cpi	r18, 0x02	; 2
    2efc:	31 05       	cpc	r19, r1
    2efe:	49 f0       	breq	.+18     	; 0x2f12 <EXTI_u8IntEnable+0xe8>
    2f00:	10 c0       	rjmp	.+32     	; 0x2f22 <EXTI_u8IntEnable+0xf8>
		{
		case ENABLE : SET_BIT(GICR,GICR_INT2);
    2f02:	ab e5       	ldi	r26, 0x5B	; 91
    2f04:	b0 e0       	ldi	r27, 0x00	; 0
    2f06:	eb e5       	ldi	r30, 0x5B	; 91
    2f08:	f0 e0       	ldi	r31, 0x00	; 0
    2f0a:	80 81       	ld	r24, Z
    2f0c:	80 62       	ori	r24, 0x20	; 32
    2f0e:	8c 93       	st	X, r24
    2f10:	0d c0       	rjmp	.+26     	; 0x2f2c <EXTI_u8IntEnable+0x102>
		break;
		case DISABLE: CLR_BIT(GICR,GICR_INT2);
    2f12:	ab e5       	ldi	r26, 0x5B	; 91
    2f14:	b0 e0       	ldi	r27, 0x00	; 0
    2f16:	eb e5       	ldi	r30, 0x5B	; 91
    2f18:	f0 e0       	ldi	r31, 0x00	; 0
    2f1a:	80 81       	ld	r24, Z
    2f1c:	8f 7d       	andi	r24, 0xDF	; 223
    2f1e:	8c 93       	st	X, r24
    2f20:	05 c0       	rjmp	.+10     	; 0x2f2c <EXTI_u8IntEnable+0x102>
		break;
		default :     Local_u8ErrorState=1;
    2f22:	81 e0       	ldi	r24, 0x01	; 1
    2f24:	89 83       	std	Y+1, r24	; 0x01
    2f26:	02 c0       	rjmp	.+4      	; 0x2f2c <EXTI_u8IntEnable+0x102>
		}
	}

	else
	{
		Local_u8ErrorState=1;
    2f28:	81 e0       	ldi	r24, 0x01	; 1
    2f2a:	89 83       	std	Y+1, r24	; 0x01
	}
	return Local_u8ErrorState;
    2f2c:	89 81       	ldd	r24, Y+1	; 0x01
}
    2f2e:	29 96       	adiw	r28, 0x09	; 9
    2f30:	0f b6       	in	r0, 0x3f	; 63
    2f32:	f8 94       	cli
    2f34:	de bf       	out	0x3e, r29	; 62
    2f36:	0f be       	out	0x3f, r0	; 63
    2f38:	cd bf       	out	0x3d, r28	; 61
    2f3a:	cf 91       	pop	r28
    2f3c:	df 91       	pop	r29
    2f3e:	08 95       	ret

00002f40 <EXTI_u8Int0ISR>:

u8 EXTI_u8Int0ISR(void (*Int0ISR) (void))
{
    2f40:	df 93       	push	r29
    2f42:	cf 93       	push	r28
    2f44:	00 d0       	rcall	.+0      	; 0x2f46 <EXTI_u8Int0ISR+0x6>
    2f46:	0f 92       	push	r0
    2f48:	cd b7       	in	r28, 0x3d	; 61
    2f4a:	de b7       	in	r29, 0x3e	; 62
    2f4c:	9b 83       	std	Y+3, r25	; 0x03
    2f4e:	8a 83       	std	Y+2, r24	; 0x02
	u8 Local_u8ErrorStatus =0;
    2f50:	19 82       	std	Y+1, r1	; 0x01

	if(Int0ISR != NULL)
    2f52:	8a 81       	ldd	r24, Y+2	; 0x02
    2f54:	9b 81       	ldd	r25, Y+3	; 0x03
    2f56:	00 97       	sbiw	r24, 0x00	; 0
    2f58:	39 f0       	breq	.+14     	; 0x2f68 <EXTI_u8Int0ISR+0x28>
	{
		Int0Function=Int0ISR;
    2f5a:	8a 81       	ldd	r24, Y+2	; 0x02
    2f5c:	9b 81       	ldd	r25, Y+3	; 0x03
    2f5e:	90 93 a7 01 	sts	0x01A7, r25
    2f62:	80 93 a6 01 	sts	0x01A6, r24
    2f66:	02 c0       	rjmp	.+4      	; 0x2f6c <EXTI_u8Int0ISR+0x2c>

	}
	else
	{
		Local_u8ErrorStatus = 2;
    2f68:	82 e0       	ldi	r24, 0x02	; 2
    2f6a:	89 83       	std	Y+1, r24	; 0x01
	}
	return Local_u8ErrorStatus;
    2f6c:	89 81       	ldd	r24, Y+1	; 0x01
}
    2f6e:	0f 90       	pop	r0
    2f70:	0f 90       	pop	r0
    2f72:	0f 90       	pop	r0
    2f74:	cf 91       	pop	r28
    2f76:	df 91       	pop	r29
    2f78:	08 95       	ret

00002f7a <EXTI_u8Int1ISR>:
u8 EXTI_u8Int1ISR(void (*Int1ISR) (void))
{
    2f7a:	df 93       	push	r29
    2f7c:	cf 93       	push	r28
    2f7e:	00 d0       	rcall	.+0      	; 0x2f80 <EXTI_u8Int1ISR+0x6>
    2f80:	0f 92       	push	r0
    2f82:	cd b7       	in	r28, 0x3d	; 61
    2f84:	de b7       	in	r29, 0x3e	; 62
    2f86:	9b 83       	std	Y+3, r25	; 0x03
    2f88:	8a 83       	std	Y+2, r24	; 0x02
	{
		u8 Local_u8ErrorStatus =0;
    2f8a:	19 82       	std	Y+1, r1	; 0x01

		if(Int1ISR != NULL)
    2f8c:	8a 81       	ldd	r24, Y+2	; 0x02
    2f8e:	9b 81       	ldd	r25, Y+3	; 0x03
    2f90:	00 97       	sbiw	r24, 0x00	; 0
    2f92:	39 f0       	breq	.+14     	; 0x2fa2 <EXTI_u8Int1ISR+0x28>
		{
			Int1Function=Int1ISR;
    2f94:	8a 81       	ldd	r24, Y+2	; 0x02
    2f96:	9b 81       	ldd	r25, Y+3	; 0x03
    2f98:	90 93 a9 01 	sts	0x01A9, r25
    2f9c:	80 93 a8 01 	sts	0x01A8, r24
    2fa0:	02 c0       	rjmp	.+4      	; 0x2fa6 <EXTI_u8Int1ISR+0x2c>

		}
		else
		{
			Local_u8ErrorStatus = 2;
    2fa2:	82 e0       	ldi	r24, 0x02	; 2
    2fa4:	89 83       	std	Y+1, r24	; 0x01
		}
		return Local_u8ErrorStatus;
    2fa6:	89 81       	ldd	r24, Y+1	; 0x01
	}


}
    2fa8:	0f 90       	pop	r0
    2faa:	0f 90       	pop	r0
    2fac:	0f 90       	pop	r0
    2fae:	cf 91       	pop	r28
    2fb0:	df 91       	pop	r29
    2fb2:	08 95       	ret

00002fb4 <EXTI_u8Int2ISR>:
u8 EXTI_u8Int2ISR(void (*Int2ISR) (void))
{
    2fb4:	df 93       	push	r29
    2fb6:	cf 93       	push	r28
    2fb8:	00 d0       	rcall	.+0      	; 0x2fba <EXTI_u8Int2ISR+0x6>
    2fba:	0f 92       	push	r0
    2fbc:	cd b7       	in	r28, 0x3d	; 61
    2fbe:	de b7       	in	r29, 0x3e	; 62
    2fc0:	9b 83       	std	Y+3, r25	; 0x03
    2fc2:	8a 83       	std	Y+2, r24	; 0x02
	{
		u8 Local_u8ErrorStatus =0;
    2fc4:	19 82       	std	Y+1, r1	; 0x01

		if(Int2ISR != NULL)
    2fc6:	8a 81       	ldd	r24, Y+2	; 0x02
    2fc8:	9b 81       	ldd	r25, Y+3	; 0x03
    2fca:	00 97       	sbiw	r24, 0x00	; 0
    2fcc:	39 f0       	breq	.+14     	; 0x2fdc <EXTI_u8Int2ISR+0x28>
		{
			Int2Function=Int2ISR;
    2fce:	8a 81       	ldd	r24, Y+2	; 0x02
    2fd0:	9b 81       	ldd	r25, Y+3	; 0x03
    2fd2:	90 93 ab 01 	sts	0x01AB, r25
    2fd6:	80 93 aa 01 	sts	0x01AA, r24
    2fda:	02 c0       	rjmp	.+4      	; 0x2fe0 <EXTI_u8Int2ISR+0x2c>

		}
		else
		{
			Local_u8ErrorStatus = 2;
    2fdc:	82 e0       	ldi	r24, 0x02	; 2
    2fde:	89 83       	std	Y+1, r24	; 0x01
		}
		return Local_u8ErrorStatus;
    2fe0:	89 81       	ldd	r24, Y+1	; 0x01
	}


}
    2fe2:	0f 90       	pop	r0
    2fe4:	0f 90       	pop	r0
    2fe6:	0f 90       	pop	r0
    2fe8:	cf 91       	pop	r28
    2fea:	df 91       	pop	r29
    2fec:	08 95       	ret

00002fee <__vector_1>:


void __vector_1(void)     __attribute__((signal));
void __vector_1(void)
{
    2fee:	1f 92       	push	r1
    2ff0:	0f 92       	push	r0
    2ff2:	0f b6       	in	r0, 0x3f	; 63
    2ff4:	0f 92       	push	r0
    2ff6:	11 24       	eor	r1, r1
    2ff8:	2f 93       	push	r18
    2ffa:	3f 93       	push	r19
    2ffc:	4f 93       	push	r20
    2ffe:	5f 93       	push	r21
    3000:	6f 93       	push	r22
    3002:	7f 93       	push	r23
    3004:	8f 93       	push	r24
    3006:	9f 93       	push	r25
    3008:	af 93       	push	r26
    300a:	bf 93       	push	r27
    300c:	ef 93       	push	r30
    300e:	ff 93       	push	r31
    3010:	df 93       	push	r29
    3012:	cf 93       	push	r28
    3014:	cd b7       	in	r28, 0x3d	; 61
    3016:	de b7       	in	r29, 0x3e	; 62
	if(Int0Function!= NULL)
    3018:	80 91 a6 01 	lds	r24, 0x01A6
    301c:	90 91 a7 01 	lds	r25, 0x01A7
    3020:	00 97       	sbiw	r24, 0x00	; 0
    3022:	29 f0       	breq	.+10     	; 0x302e <__vector_1+0x40>
	{
		Int0Function();
    3024:	e0 91 a6 01 	lds	r30, 0x01A6
    3028:	f0 91 a7 01 	lds	r31, 0x01A7
    302c:	09 95       	icall
	}
	else
	{
		/*DO NOTHING*/
	}
}
    302e:	cf 91       	pop	r28
    3030:	df 91       	pop	r29
    3032:	ff 91       	pop	r31
    3034:	ef 91       	pop	r30
    3036:	bf 91       	pop	r27
    3038:	af 91       	pop	r26
    303a:	9f 91       	pop	r25
    303c:	8f 91       	pop	r24
    303e:	7f 91       	pop	r23
    3040:	6f 91       	pop	r22
    3042:	5f 91       	pop	r21
    3044:	4f 91       	pop	r20
    3046:	3f 91       	pop	r19
    3048:	2f 91       	pop	r18
    304a:	0f 90       	pop	r0
    304c:	0f be       	out	0x3f, r0	; 63
    304e:	0f 90       	pop	r0
    3050:	1f 90       	pop	r1
    3052:	18 95       	reti

00003054 <__vector_2>:

void __vector_2(void)     __attribute__((signal));
void __vector_2(void)
{
    3054:	1f 92       	push	r1
    3056:	0f 92       	push	r0
    3058:	0f b6       	in	r0, 0x3f	; 63
    305a:	0f 92       	push	r0
    305c:	11 24       	eor	r1, r1
    305e:	2f 93       	push	r18
    3060:	3f 93       	push	r19
    3062:	4f 93       	push	r20
    3064:	5f 93       	push	r21
    3066:	6f 93       	push	r22
    3068:	7f 93       	push	r23
    306a:	8f 93       	push	r24
    306c:	9f 93       	push	r25
    306e:	af 93       	push	r26
    3070:	bf 93       	push	r27
    3072:	ef 93       	push	r30
    3074:	ff 93       	push	r31
    3076:	df 93       	push	r29
    3078:	cf 93       	push	r28
    307a:	cd b7       	in	r28, 0x3d	; 61
    307c:	de b7       	in	r29, 0x3e	; 62
	if(Int1Function!=NULL)
    307e:	80 91 a8 01 	lds	r24, 0x01A8
    3082:	90 91 a9 01 	lds	r25, 0x01A9
    3086:	00 97       	sbiw	r24, 0x00	; 0
    3088:	29 f0       	breq	.+10     	; 0x3094 <__vector_2+0x40>
	{
		Int1Function();
    308a:	e0 91 a8 01 	lds	r30, 0x01A8
    308e:	f0 91 a9 01 	lds	r31, 0x01A9
    3092:	09 95       	icall
	}
	else
	{
		/*DO NOTHING*/
	}
}
    3094:	cf 91       	pop	r28
    3096:	df 91       	pop	r29
    3098:	ff 91       	pop	r31
    309a:	ef 91       	pop	r30
    309c:	bf 91       	pop	r27
    309e:	af 91       	pop	r26
    30a0:	9f 91       	pop	r25
    30a2:	8f 91       	pop	r24
    30a4:	7f 91       	pop	r23
    30a6:	6f 91       	pop	r22
    30a8:	5f 91       	pop	r21
    30aa:	4f 91       	pop	r20
    30ac:	3f 91       	pop	r19
    30ae:	2f 91       	pop	r18
    30b0:	0f 90       	pop	r0
    30b2:	0f be       	out	0x3f, r0	; 63
    30b4:	0f 90       	pop	r0
    30b6:	1f 90       	pop	r1
    30b8:	18 95       	reti

000030ba <__vector_3>:

void __vector_3(void)     __attribute__((signal));
void __vector_3(void)
{
    30ba:	1f 92       	push	r1
    30bc:	0f 92       	push	r0
    30be:	0f b6       	in	r0, 0x3f	; 63
    30c0:	0f 92       	push	r0
    30c2:	11 24       	eor	r1, r1
    30c4:	2f 93       	push	r18
    30c6:	3f 93       	push	r19
    30c8:	4f 93       	push	r20
    30ca:	5f 93       	push	r21
    30cc:	6f 93       	push	r22
    30ce:	7f 93       	push	r23
    30d0:	8f 93       	push	r24
    30d2:	9f 93       	push	r25
    30d4:	af 93       	push	r26
    30d6:	bf 93       	push	r27
    30d8:	ef 93       	push	r30
    30da:	ff 93       	push	r31
    30dc:	df 93       	push	r29
    30de:	cf 93       	push	r28
    30e0:	cd b7       	in	r28, 0x3d	; 61
    30e2:	de b7       	in	r29, 0x3e	; 62
	if(Int2Function!=NULL)
    30e4:	80 91 aa 01 	lds	r24, 0x01AA
    30e8:	90 91 ab 01 	lds	r25, 0x01AB
    30ec:	00 97       	sbiw	r24, 0x00	; 0
    30ee:	29 f0       	breq	.+10     	; 0x30fa <__vector_3+0x40>
	{
		Int2Function();
    30f0:	e0 91 aa 01 	lds	r30, 0x01AA
    30f4:	f0 91 ab 01 	lds	r31, 0x01AB
    30f8:	09 95       	icall
	}
	else
	{
		/*DO NOTHING*/
	}
}
    30fa:	cf 91       	pop	r28
    30fc:	df 91       	pop	r29
    30fe:	ff 91       	pop	r31
    3100:	ef 91       	pop	r30
    3102:	bf 91       	pop	r27
    3104:	af 91       	pop	r26
    3106:	9f 91       	pop	r25
    3108:	8f 91       	pop	r24
    310a:	7f 91       	pop	r23
    310c:	6f 91       	pop	r22
    310e:	5f 91       	pop	r21
    3110:	4f 91       	pop	r20
    3112:	3f 91       	pop	r19
    3114:	2f 91       	pop	r18
    3116:	0f 90       	pop	r0
    3118:	0f be       	out	0x3f, r0	; 63
    311a:	0f 90       	pop	r0
    311c:	1f 90       	pop	r1
    311e:	18 95       	reti

00003120 <DIO_u8SetPinDirection>:
/*********************************************************************************/

#include "DIO_interface.h"

u8 DIO_u8SetPinDirection(u8 Copy_u8Port, u8 Copy_u8Pin ,u8 Copy_u8Direction)
{
    3120:	df 93       	push	r29
    3122:	cf 93       	push	r28
    3124:	cd b7       	in	r28, 0x3d	; 61
    3126:	de b7       	in	r29, 0x3e	; 62
    3128:	28 97       	sbiw	r28, 0x08	; 8
    312a:	0f b6       	in	r0, 0x3f	; 63
    312c:	f8 94       	cli
    312e:	de bf       	out	0x3e, r29	; 62
    3130:	0f be       	out	0x3f, r0	; 63
    3132:	cd bf       	out	0x3d, r28	; 61
    3134:	8a 83       	std	Y+2, r24	; 0x02
    3136:	6b 83       	std	Y+3, r22	; 0x03
    3138:	4c 83       	std	Y+4, r20	; 0x04
	u8 Local_u8ErrorState = 0;
    313a:	19 82       	std	Y+1, r1	; 0x01
	if (Copy_u8Pin > 7)
    313c:	8b 81       	ldd	r24, Y+3	; 0x03
    313e:	88 30       	cpi	r24, 0x08	; 8
    3140:	10 f0       	brcs	.+4      	; 0x3146 <DIO_u8SetPinDirection+0x26>
		Local_u8ErrorState = 1;
    3142:	81 e0       	ldi	r24, 0x01	; 1
    3144:	89 83       	std	Y+1, r24	; 0x01
	if(Copy_u8Direction == INPUT)
    3146:	8c 81       	ldd	r24, Y+4	; 0x04
    3148:	88 23       	and	r24, r24
    314a:	09 f0       	breq	.+2      	; 0x314e <DIO_u8SetPinDirection+0x2e>
    314c:	78 c0       	rjmp	.+240    	; 0x323e <DIO_u8SetPinDirection+0x11e>
	{
		switch (Copy_u8Port)
    314e:	8a 81       	ldd	r24, Y+2	; 0x02
    3150:	28 2f       	mov	r18, r24
    3152:	30 e0       	ldi	r19, 0x00	; 0
    3154:	38 87       	std	Y+8, r19	; 0x08
    3156:	2f 83       	std	Y+7, r18	; 0x07
    3158:	8f 81       	ldd	r24, Y+7	; 0x07
    315a:	98 85       	ldd	r25, Y+8	; 0x08
    315c:	82 30       	cpi	r24, 0x02	; 2
    315e:	91 05       	cpc	r25, r1
    3160:	61 f1       	breq	.+88     	; 0x31ba <DIO_u8SetPinDirection+0x9a>
    3162:	2f 81       	ldd	r18, Y+7	; 0x07
    3164:	38 85       	ldd	r19, Y+8	; 0x08
    3166:	23 30       	cpi	r18, 0x03	; 3
    3168:	31 05       	cpc	r19, r1
    316a:	34 f4       	brge	.+12     	; 0x3178 <DIO_u8SetPinDirection+0x58>
    316c:	8f 81       	ldd	r24, Y+7	; 0x07
    316e:	98 85       	ldd	r25, Y+8	; 0x08
    3170:	81 30       	cpi	r24, 0x01	; 1
    3172:	91 05       	cpc	r25, r1
    3174:	69 f0       	breq	.+26     	; 0x3190 <DIO_u8SetPinDirection+0x70>
    3176:	60 c0       	rjmp	.+192    	; 0x3238 <DIO_u8SetPinDirection+0x118>
    3178:	2f 81       	ldd	r18, Y+7	; 0x07
    317a:	38 85       	ldd	r19, Y+8	; 0x08
    317c:	23 30       	cpi	r18, 0x03	; 3
    317e:	31 05       	cpc	r19, r1
    3180:	89 f1       	breq	.+98     	; 0x31e4 <DIO_u8SetPinDirection+0xc4>
    3182:	8f 81       	ldd	r24, Y+7	; 0x07
    3184:	98 85       	ldd	r25, Y+8	; 0x08
    3186:	84 30       	cpi	r24, 0x04	; 4
    3188:	91 05       	cpc	r25, r1
    318a:	09 f4       	brne	.+2      	; 0x318e <DIO_u8SetPinDirection+0x6e>
    318c:	40 c0       	rjmp	.+128    	; 0x320e <DIO_u8SetPinDirection+0xee>
    318e:	54 c0       	rjmp	.+168    	; 0x3238 <DIO_u8SetPinDirection+0x118>
		{
		case PORT_A :
			CLR_BIT(DDRA,Copy_u8Pin);
    3190:	aa e3       	ldi	r26, 0x3A	; 58
    3192:	b0 e0       	ldi	r27, 0x00	; 0
    3194:	ea e3       	ldi	r30, 0x3A	; 58
    3196:	f0 e0       	ldi	r31, 0x00	; 0
    3198:	80 81       	ld	r24, Z
    319a:	48 2f       	mov	r20, r24
    319c:	8b 81       	ldd	r24, Y+3	; 0x03
    319e:	28 2f       	mov	r18, r24
    31a0:	30 e0       	ldi	r19, 0x00	; 0
    31a2:	81 e0       	ldi	r24, 0x01	; 1
    31a4:	90 e0       	ldi	r25, 0x00	; 0
    31a6:	02 2e       	mov	r0, r18
    31a8:	02 c0       	rjmp	.+4      	; 0x31ae <DIO_u8SetPinDirection+0x8e>
    31aa:	88 0f       	add	r24, r24
    31ac:	99 1f       	adc	r25, r25
    31ae:	0a 94       	dec	r0
    31b0:	e2 f7       	brpl	.-8      	; 0x31aa <DIO_u8SetPinDirection+0x8a>
    31b2:	80 95       	com	r24
    31b4:	84 23       	and	r24, r20
    31b6:	8c 93       	st	X, r24
    31b8:	bb c0       	rjmp	.+374    	; 0x3330 <DIO_u8SetPinDirection+0x210>
			break;
		case PORT_B :
			CLR_BIT(DDRB,Copy_u8Pin);
    31ba:	a7 e3       	ldi	r26, 0x37	; 55
    31bc:	b0 e0       	ldi	r27, 0x00	; 0
    31be:	e7 e3       	ldi	r30, 0x37	; 55
    31c0:	f0 e0       	ldi	r31, 0x00	; 0
    31c2:	80 81       	ld	r24, Z
    31c4:	48 2f       	mov	r20, r24
    31c6:	8b 81       	ldd	r24, Y+3	; 0x03
    31c8:	28 2f       	mov	r18, r24
    31ca:	30 e0       	ldi	r19, 0x00	; 0
    31cc:	81 e0       	ldi	r24, 0x01	; 1
    31ce:	90 e0       	ldi	r25, 0x00	; 0
    31d0:	02 2e       	mov	r0, r18
    31d2:	02 c0       	rjmp	.+4      	; 0x31d8 <DIO_u8SetPinDirection+0xb8>
    31d4:	88 0f       	add	r24, r24
    31d6:	99 1f       	adc	r25, r25
    31d8:	0a 94       	dec	r0
    31da:	e2 f7       	brpl	.-8      	; 0x31d4 <DIO_u8SetPinDirection+0xb4>
    31dc:	80 95       	com	r24
    31de:	84 23       	and	r24, r20
    31e0:	8c 93       	st	X, r24
    31e2:	a6 c0       	rjmp	.+332    	; 0x3330 <DIO_u8SetPinDirection+0x210>
			break;
		case PORT_C :
			CLR_BIT(DDRC,Copy_u8Pin);
    31e4:	a4 e3       	ldi	r26, 0x34	; 52
    31e6:	b0 e0       	ldi	r27, 0x00	; 0
    31e8:	e4 e3       	ldi	r30, 0x34	; 52
    31ea:	f0 e0       	ldi	r31, 0x00	; 0
    31ec:	80 81       	ld	r24, Z
    31ee:	48 2f       	mov	r20, r24
    31f0:	8b 81       	ldd	r24, Y+3	; 0x03
    31f2:	28 2f       	mov	r18, r24
    31f4:	30 e0       	ldi	r19, 0x00	; 0
    31f6:	81 e0       	ldi	r24, 0x01	; 1
    31f8:	90 e0       	ldi	r25, 0x00	; 0
    31fa:	02 2e       	mov	r0, r18
    31fc:	02 c0       	rjmp	.+4      	; 0x3202 <DIO_u8SetPinDirection+0xe2>
    31fe:	88 0f       	add	r24, r24
    3200:	99 1f       	adc	r25, r25
    3202:	0a 94       	dec	r0
    3204:	e2 f7       	brpl	.-8      	; 0x31fe <DIO_u8SetPinDirection+0xde>
    3206:	80 95       	com	r24
    3208:	84 23       	and	r24, r20
    320a:	8c 93       	st	X, r24
    320c:	91 c0       	rjmp	.+290    	; 0x3330 <DIO_u8SetPinDirection+0x210>
			break;
		case PORT_D :
			CLR_BIT(DDRD,Copy_u8Pin);
    320e:	a1 e3       	ldi	r26, 0x31	; 49
    3210:	b0 e0       	ldi	r27, 0x00	; 0
    3212:	e1 e3       	ldi	r30, 0x31	; 49
    3214:	f0 e0       	ldi	r31, 0x00	; 0
    3216:	80 81       	ld	r24, Z
    3218:	48 2f       	mov	r20, r24
    321a:	8b 81       	ldd	r24, Y+3	; 0x03
    321c:	28 2f       	mov	r18, r24
    321e:	30 e0       	ldi	r19, 0x00	; 0
    3220:	81 e0       	ldi	r24, 0x01	; 1
    3222:	90 e0       	ldi	r25, 0x00	; 0
    3224:	02 2e       	mov	r0, r18
    3226:	02 c0       	rjmp	.+4      	; 0x322c <DIO_u8SetPinDirection+0x10c>
    3228:	88 0f       	add	r24, r24
    322a:	99 1f       	adc	r25, r25
    322c:	0a 94       	dec	r0
    322e:	e2 f7       	brpl	.-8      	; 0x3228 <DIO_u8SetPinDirection+0x108>
    3230:	80 95       	com	r24
    3232:	84 23       	and	r24, r20
    3234:	8c 93       	st	X, r24
    3236:	7c c0       	rjmp	.+248    	; 0x3330 <DIO_u8SetPinDirection+0x210>
			break;
		default:
			Local_u8ErrorState =1;
    3238:	81 e0       	ldi	r24, 0x01	; 1
    323a:	89 83       	std	Y+1, r24	; 0x01
    323c:	79 c0       	rjmp	.+242    	; 0x3330 <DIO_u8SetPinDirection+0x210>
			break;
		}
	}
	else if(Copy_u8Direction == OUTPUT)
    323e:	8c 81       	ldd	r24, Y+4	; 0x04
    3240:	81 30       	cpi	r24, 0x01	; 1
    3242:	09 f0       	breq	.+2      	; 0x3246 <DIO_u8SetPinDirection+0x126>
    3244:	73 c0       	rjmp	.+230    	; 0x332c <DIO_u8SetPinDirection+0x20c>
	{
		switch (Copy_u8Port)
    3246:	8a 81       	ldd	r24, Y+2	; 0x02
    3248:	28 2f       	mov	r18, r24
    324a:	30 e0       	ldi	r19, 0x00	; 0
    324c:	3e 83       	std	Y+6, r19	; 0x06
    324e:	2d 83       	std	Y+5, r18	; 0x05
    3250:	8d 81       	ldd	r24, Y+5	; 0x05
    3252:	9e 81       	ldd	r25, Y+6	; 0x06
    3254:	82 30       	cpi	r24, 0x02	; 2
    3256:	91 05       	cpc	r25, r1
    3258:	51 f1       	breq	.+84     	; 0x32ae <DIO_u8SetPinDirection+0x18e>
    325a:	2d 81       	ldd	r18, Y+5	; 0x05
    325c:	3e 81       	ldd	r19, Y+6	; 0x06
    325e:	23 30       	cpi	r18, 0x03	; 3
    3260:	31 05       	cpc	r19, r1
    3262:	34 f4       	brge	.+12     	; 0x3270 <DIO_u8SetPinDirection+0x150>
    3264:	8d 81       	ldd	r24, Y+5	; 0x05
    3266:	9e 81       	ldd	r25, Y+6	; 0x06
    3268:	81 30       	cpi	r24, 0x01	; 1
    326a:	91 05       	cpc	r25, r1
    326c:	61 f0       	breq	.+24     	; 0x3286 <DIO_u8SetPinDirection+0x166>
    326e:	5b c0       	rjmp	.+182    	; 0x3326 <DIO_u8SetPinDirection+0x206>
    3270:	2d 81       	ldd	r18, Y+5	; 0x05
    3272:	3e 81       	ldd	r19, Y+6	; 0x06
    3274:	23 30       	cpi	r18, 0x03	; 3
    3276:	31 05       	cpc	r19, r1
    3278:	71 f1       	breq	.+92     	; 0x32d6 <DIO_u8SetPinDirection+0x1b6>
    327a:	8d 81       	ldd	r24, Y+5	; 0x05
    327c:	9e 81       	ldd	r25, Y+6	; 0x06
    327e:	84 30       	cpi	r24, 0x04	; 4
    3280:	91 05       	cpc	r25, r1
    3282:	e9 f1       	breq	.+122    	; 0x32fe <DIO_u8SetPinDirection+0x1de>
    3284:	50 c0       	rjmp	.+160    	; 0x3326 <DIO_u8SetPinDirection+0x206>
		{
		case PORT_A :
			SET_BIT(DDRA,Copy_u8Pin);
    3286:	aa e3       	ldi	r26, 0x3A	; 58
    3288:	b0 e0       	ldi	r27, 0x00	; 0
    328a:	ea e3       	ldi	r30, 0x3A	; 58
    328c:	f0 e0       	ldi	r31, 0x00	; 0
    328e:	80 81       	ld	r24, Z
    3290:	48 2f       	mov	r20, r24
    3292:	8b 81       	ldd	r24, Y+3	; 0x03
    3294:	28 2f       	mov	r18, r24
    3296:	30 e0       	ldi	r19, 0x00	; 0
    3298:	81 e0       	ldi	r24, 0x01	; 1
    329a:	90 e0       	ldi	r25, 0x00	; 0
    329c:	02 2e       	mov	r0, r18
    329e:	02 c0       	rjmp	.+4      	; 0x32a4 <DIO_u8SetPinDirection+0x184>
    32a0:	88 0f       	add	r24, r24
    32a2:	99 1f       	adc	r25, r25
    32a4:	0a 94       	dec	r0
    32a6:	e2 f7       	brpl	.-8      	; 0x32a0 <DIO_u8SetPinDirection+0x180>
    32a8:	84 2b       	or	r24, r20
    32aa:	8c 93       	st	X, r24
    32ac:	41 c0       	rjmp	.+130    	; 0x3330 <DIO_u8SetPinDirection+0x210>
			break;
		case PORT_B :
			SET_BIT(DDRB,Copy_u8Pin);
    32ae:	a7 e3       	ldi	r26, 0x37	; 55
    32b0:	b0 e0       	ldi	r27, 0x00	; 0
    32b2:	e7 e3       	ldi	r30, 0x37	; 55
    32b4:	f0 e0       	ldi	r31, 0x00	; 0
    32b6:	80 81       	ld	r24, Z
    32b8:	48 2f       	mov	r20, r24
    32ba:	8b 81       	ldd	r24, Y+3	; 0x03
    32bc:	28 2f       	mov	r18, r24
    32be:	30 e0       	ldi	r19, 0x00	; 0
    32c0:	81 e0       	ldi	r24, 0x01	; 1
    32c2:	90 e0       	ldi	r25, 0x00	; 0
    32c4:	02 2e       	mov	r0, r18
    32c6:	02 c0       	rjmp	.+4      	; 0x32cc <DIO_u8SetPinDirection+0x1ac>
    32c8:	88 0f       	add	r24, r24
    32ca:	99 1f       	adc	r25, r25
    32cc:	0a 94       	dec	r0
    32ce:	e2 f7       	brpl	.-8      	; 0x32c8 <DIO_u8SetPinDirection+0x1a8>
    32d0:	84 2b       	or	r24, r20
    32d2:	8c 93       	st	X, r24
    32d4:	2d c0       	rjmp	.+90     	; 0x3330 <DIO_u8SetPinDirection+0x210>
			break;
		case PORT_C :
			SET_BIT(DDRC,Copy_u8Pin);
    32d6:	a4 e3       	ldi	r26, 0x34	; 52
    32d8:	b0 e0       	ldi	r27, 0x00	; 0
    32da:	e4 e3       	ldi	r30, 0x34	; 52
    32dc:	f0 e0       	ldi	r31, 0x00	; 0
    32de:	80 81       	ld	r24, Z
    32e0:	48 2f       	mov	r20, r24
    32e2:	8b 81       	ldd	r24, Y+3	; 0x03
    32e4:	28 2f       	mov	r18, r24
    32e6:	30 e0       	ldi	r19, 0x00	; 0
    32e8:	81 e0       	ldi	r24, 0x01	; 1
    32ea:	90 e0       	ldi	r25, 0x00	; 0
    32ec:	02 2e       	mov	r0, r18
    32ee:	02 c0       	rjmp	.+4      	; 0x32f4 <DIO_u8SetPinDirection+0x1d4>
    32f0:	88 0f       	add	r24, r24
    32f2:	99 1f       	adc	r25, r25
    32f4:	0a 94       	dec	r0
    32f6:	e2 f7       	brpl	.-8      	; 0x32f0 <DIO_u8SetPinDirection+0x1d0>
    32f8:	84 2b       	or	r24, r20
    32fa:	8c 93       	st	X, r24
    32fc:	19 c0       	rjmp	.+50     	; 0x3330 <DIO_u8SetPinDirection+0x210>
			break;
		case PORT_D :
			SET_BIT(DDRD,Copy_u8Pin);
    32fe:	a1 e3       	ldi	r26, 0x31	; 49
    3300:	b0 e0       	ldi	r27, 0x00	; 0
    3302:	e1 e3       	ldi	r30, 0x31	; 49
    3304:	f0 e0       	ldi	r31, 0x00	; 0
    3306:	80 81       	ld	r24, Z
    3308:	48 2f       	mov	r20, r24
    330a:	8b 81       	ldd	r24, Y+3	; 0x03
    330c:	28 2f       	mov	r18, r24
    330e:	30 e0       	ldi	r19, 0x00	; 0
    3310:	81 e0       	ldi	r24, 0x01	; 1
    3312:	90 e0       	ldi	r25, 0x00	; 0
    3314:	02 2e       	mov	r0, r18
    3316:	02 c0       	rjmp	.+4      	; 0x331c <DIO_u8SetPinDirection+0x1fc>
    3318:	88 0f       	add	r24, r24
    331a:	99 1f       	adc	r25, r25
    331c:	0a 94       	dec	r0
    331e:	e2 f7       	brpl	.-8      	; 0x3318 <DIO_u8SetPinDirection+0x1f8>
    3320:	84 2b       	or	r24, r20
    3322:	8c 93       	st	X, r24
    3324:	05 c0       	rjmp	.+10     	; 0x3330 <DIO_u8SetPinDirection+0x210>
			break;
		default:
			Local_u8ErrorState =1;
    3326:	81 e0       	ldi	r24, 0x01	; 1
    3328:	89 83       	std	Y+1, r24	; 0x01
    332a:	02 c0       	rjmp	.+4      	; 0x3330 <DIO_u8SetPinDirection+0x210>
			break;
		}
	}
	else
	{
		Local_u8ErrorState =1;
    332c:	81 e0       	ldi	r24, 0x01	; 1
    332e:	89 83       	std	Y+1, r24	; 0x01
	}
	return Local_u8ErrorState;
    3330:	89 81       	ldd	r24, Y+1	; 0x01
}
    3332:	28 96       	adiw	r28, 0x08	; 8
    3334:	0f b6       	in	r0, 0x3f	; 63
    3336:	f8 94       	cli
    3338:	de bf       	out	0x3e, r29	; 62
    333a:	0f be       	out	0x3f, r0	; 63
    333c:	cd bf       	out	0x3d, r28	; 61
    333e:	cf 91       	pop	r28
    3340:	df 91       	pop	r29
    3342:	08 95       	ret

00003344 <DIO_u8SetPortDirection>:
u8 DIO_u8SetPortDirection(u8 Copy_u8Port, u8 Copy_u8Direction)
{
    3344:	df 93       	push	r29
    3346:	cf 93       	push	r28
    3348:	00 d0       	rcall	.+0      	; 0x334a <DIO_u8SetPortDirection+0x6>
    334a:	00 d0       	rcall	.+0      	; 0x334c <DIO_u8SetPortDirection+0x8>
    334c:	0f 92       	push	r0
    334e:	cd b7       	in	r28, 0x3d	; 61
    3350:	de b7       	in	r29, 0x3e	; 62
    3352:	8a 83       	std	Y+2, r24	; 0x02
    3354:	6b 83       	std	Y+3, r22	; 0x03
	u8 Local_u8ErrorState =0;
    3356:	19 82       	std	Y+1, r1	; 0x01
	switch (Copy_u8Port)
    3358:	8a 81       	ldd	r24, Y+2	; 0x02
    335a:	28 2f       	mov	r18, r24
    335c:	30 e0       	ldi	r19, 0x00	; 0
    335e:	3d 83       	std	Y+5, r19	; 0x05
    3360:	2c 83       	std	Y+4, r18	; 0x04
    3362:	8c 81       	ldd	r24, Y+4	; 0x04
    3364:	9d 81       	ldd	r25, Y+5	; 0x05
    3366:	82 30       	cpi	r24, 0x02	; 2
    3368:	91 05       	cpc	r25, r1
    336a:	d9 f0       	breq	.+54     	; 0x33a2 <DIO_u8SetPortDirection+0x5e>
    336c:	2c 81       	ldd	r18, Y+4	; 0x04
    336e:	3d 81       	ldd	r19, Y+5	; 0x05
    3370:	23 30       	cpi	r18, 0x03	; 3
    3372:	31 05       	cpc	r19, r1
    3374:	34 f4       	brge	.+12     	; 0x3382 <DIO_u8SetPortDirection+0x3e>
    3376:	8c 81       	ldd	r24, Y+4	; 0x04
    3378:	9d 81       	ldd	r25, Y+5	; 0x05
    337a:	81 30       	cpi	r24, 0x01	; 1
    337c:	91 05       	cpc	r25, r1
    337e:	61 f0       	breq	.+24     	; 0x3398 <DIO_u8SetPortDirection+0x54>
    3380:	1f c0       	rjmp	.+62     	; 0x33c0 <DIO_u8SetPortDirection+0x7c>
    3382:	2c 81       	ldd	r18, Y+4	; 0x04
    3384:	3d 81       	ldd	r19, Y+5	; 0x05
    3386:	23 30       	cpi	r18, 0x03	; 3
    3388:	31 05       	cpc	r19, r1
    338a:	81 f0       	breq	.+32     	; 0x33ac <DIO_u8SetPortDirection+0x68>
    338c:	8c 81       	ldd	r24, Y+4	; 0x04
    338e:	9d 81       	ldd	r25, Y+5	; 0x05
    3390:	84 30       	cpi	r24, 0x04	; 4
    3392:	91 05       	cpc	r25, r1
    3394:	81 f0       	breq	.+32     	; 0x33b6 <DIO_u8SetPortDirection+0x72>
    3396:	14 c0       	rjmp	.+40     	; 0x33c0 <DIO_u8SetPortDirection+0x7c>
	{
	case PORT_A :
		DDRA = Copy_u8Direction;
    3398:	ea e3       	ldi	r30, 0x3A	; 58
    339a:	f0 e0       	ldi	r31, 0x00	; 0
    339c:	8b 81       	ldd	r24, Y+3	; 0x03
    339e:	80 83       	st	Z, r24
    33a0:	11 c0       	rjmp	.+34     	; 0x33c4 <DIO_u8SetPortDirection+0x80>
		break;
	case PORT_B :
		DDRB = Copy_u8Direction;
    33a2:	e7 e3       	ldi	r30, 0x37	; 55
    33a4:	f0 e0       	ldi	r31, 0x00	; 0
    33a6:	8b 81       	ldd	r24, Y+3	; 0x03
    33a8:	80 83       	st	Z, r24
    33aa:	0c c0       	rjmp	.+24     	; 0x33c4 <DIO_u8SetPortDirection+0x80>
		break;
	case PORT_C :
		DDRC = Copy_u8Direction;
    33ac:	e4 e3       	ldi	r30, 0x34	; 52
    33ae:	f0 e0       	ldi	r31, 0x00	; 0
    33b0:	8b 81       	ldd	r24, Y+3	; 0x03
    33b2:	80 83       	st	Z, r24
    33b4:	07 c0       	rjmp	.+14     	; 0x33c4 <DIO_u8SetPortDirection+0x80>
		break;
	case PORT_D :
		DDRD = Copy_u8Direction;
    33b6:	e1 e3       	ldi	r30, 0x31	; 49
    33b8:	f0 e0       	ldi	r31, 0x00	; 0
    33ba:	8b 81       	ldd	r24, Y+3	; 0x03
    33bc:	80 83       	st	Z, r24
    33be:	02 c0       	rjmp	.+4      	; 0x33c4 <DIO_u8SetPortDirection+0x80>
		break;
	default :
		Local_u8ErrorState =1;
    33c0:	81 e0       	ldi	r24, 0x01	; 1
    33c2:	89 83       	std	Y+1, r24	; 0x01
		break;
	}
	return Local_u8ErrorState;
    33c4:	89 81       	ldd	r24, Y+1	; 0x01
}
    33c6:	0f 90       	pop	r0
    33c8:	0f 90       	pop	r0
    33ca:	0f 90       	pop	r0
    33cc:	0f 90       	pop	r0
    33ce:	0f 90       	pop	r0
    33d0:	cf 91       	pop	r28
    33d2:	df 91       	pop	r29
    33d4:	08 95       	ret

000033d6 <DIO_u8SetPinValue>:
u8 DIO_u8SetPinValue(u8 Copy_u8Port, u8 Copy_u8Pin ,u8 Copy_u8Value)
{
    33d6:	df 93       	push	r29
    33d8:	cf 93       	push	r28
    33da:	cd b7       	in	r28, 0x3d	; 61
    33dc:	de b7       	in	r29, 0x3e	; 62
    33de:	28 97       	sbiw	r28, 0x08	; 8
    33e0:	0f b6       	in	r0, 0x3f	; 63
    33e2:	f8 94       	cli
    33e4:	de bf       	out	0x3e, r29	; 62
    33e6:	0f be       	out	0x3f, r0	; 63
    33e8:	cd bf       	out	0x3d, r28	; 61
    33ea:	8a 83       	std	Y+2, r24	; 0x02
    33ec:	6b 83       	std	Y+3, r22	; 0x03
    33ee:	4c 83       	std	Y+4, r20	; 0x04
	u8 Local_u8ErrorState =0;
    33f0:	19 82       	std	Y+1, r1	; 0x01
	if(Copy_u8Pin>7)
    33f2:	8b 81       	ldd	r24, Y+3	; 0x03
    33f4:	88 30       	cpi	r24, 0x08	; 8
    33f6:	10 f0       	brcs	.+4      	; 0x33fc <DIO_u8SetPinValue+0x26>
		Local_u8ErrorState =1;
    33f8:	81 e0       	ldi	r24, 0x01	; 1
    33fa:	89 83       	std	Y+1, r24	; 0x01
	if(Copy_u8Value == LOW)
    33fc:	8c 81       	ldd	r24, Y+4	; 0x04
    33fe:	88 23       	and	r24, r24
    3400:	09 f0       	breq	.+2      	; 0x3404 <DIO_u8SetPinValue+0x2e>
    3402:	78 c0       	rjmp	.+240    	; 0x34f4 <DIO_u8SetPinValue+0x11e>
	{
		switch (Copy_u8Port)
    3404:	8a 81       	ldd	r24, Y+2	; 0x02
    3406:	28 2f       	mov	r18, r24
    3408:	30 e0       	ldi	r19, 0x00	; 0
    340a:	38 87       	std	Y+8, r19	; 0x08
    340c:	2f 83       	std	Y+7, r18	; 0x07
    340e:	8f 81       	ldd	r24, Y+7	; 0x07
    3410:	98 85       	ldd	r25, Y+8	; 0x08
    3412:	82 30       	cpi	r24, 0x02	; 2
    3414:	91 05       	cpc	r25, r1
    3416:	61 f1       	breq	.+88     	; 0x3470 <DIO_u8SetPinValue+0x9a>
    3418:	2f 81       	ldd	r18, Y+7	; 0x07
    341a:	38 85       	ldd	r19, Y+8	; 0x08
    341c:	23 30       	cpi	r18, 0x03	; 3
    341e:	31 05       	cpc	r19, r1
    3420:	34 f4       	brge	.+12     	; 0x342e <DIO_u8SetPinValue+0x58>
    3422:	8f 81       	ldd	r24, Y+7	; 0x07
    3424:	98 85       	ldd	r25, Y+8	; 0x08
    3426:	81 30       	cpi	r24, 0x01	; 1
    3428:	91 05       	cpc	r25, r1
    342a:	69 f0       	breq	.+26     	; 0x3446 <DIO_u8SetPinValue+0x70>
    342c:	60 c0       	rjmp	.+192    	; 0x34ee <DIO_u8SetPinValue+0x118>
    342e:	2f 81       	ldd	r18, Y+7	; 0x07
    3430:	38 85       	ldd	r19, Y+8	; 0x08
    3432:	23 30       	cpi	r18, 0x03	; 3
    3434:	31 05       	cpc	r19, r1
    3436:	89 f1       	breq	.+98     	; 0x349a <DIO_u8SetPinValue+0xc4>
    3438:	8f 81       	ldd	r24, Y+7	; 0x07
    343a:	98 85       	ldd	r25, Y+8	; 0x08
    343c:	84 30       	cpi	r24, 0x04	; 4
    343e:	91 05       	cpc	r25, r1
    3440:	09 f4       	brne	.+2      	; 0x3444 <DIO_u8SetPinValue+0x6e>
    3442:	40 c0       	rjmp	.+128    	; 0x34c4 <DIO_u8SetPinValue+0xee>
    3444:	54 c0       	rjmp	.+168    	; 0x34ee <DIO_u8SetPinValue+0x118>
		{
		case PORT_A :
			CLR_BIT(PORTA,Copy_u8Pin);
    3446:	ab e3       	ldi	r26, 0x3B	; 59
    3448:	b0 e0       	ldi	r27, 0x00	; 0
    344a:	eb e3       	ldi	r30, 0x3B	; 59
    344c:	f0 e0       	ldi	r31, 0x00	; 0
    344e:	80 81       	ld	r24, Z
    3450:	48 2f       	mov	r20, r24
    3452:	8b 81       	ldd	r24, Y+3	; 0x03
    3454:	28 2f       	mov	r18, r24
    3456:	30 e0       	ldi	r19, 0x00	; 0
    3458:	81 e0       	ldi	r24, 0x01	; 1
    345a:	90 e0       	ldi	r25, 0x00	; 0
    345c:	02 2e       	mov	r0, r18
    345e:	02 c0       	rjmp	.+4      	; 0x3464 <DIO_u8SetPinValue+0x8e>
    3460:	88 0f       	add	r24, r24
    3462:	99 1f       	adc	r25, r25
    3464:	0a 94       	dec	r0
    3466:	e2 f7       	brpl	.-8      	; 0x3460 <DIO_u8SetPinValue+0x8a>
    3468:	80 95       	com	r24
    346a:	84 23       	and	r24, r20
    346c:	8c 93       	st	X, r24
    346e:	bb c0       	rjmp	.+374    	; 0x35e6 <DIO_u8SetPinValue+0x210>
			break;
		case PORT_B :
			CLR_BIT(PORTB,Copy_u8Pin);
    3470:	a8 e3       	ldi	r26, 0x38	; 56
    3472:	b0 e0       	ldi	r27, 0x00	; 0
    3474:	e8 e3       	ldi	r30, 0x38	; 56
    3476:	f0 e0       	ldi	r31, 0x00	; 0
    3478:	80 81       	ld	r24, Z
    347a:	48 2f       	mov	r20, r24
    347c:	8b 81       	ldd	r24, Y+3	; 0x03
    347e:	28 2f       	mov	r18, r24
    3480:	30 e0       	ldi	r19, 0x00	; 0
    3482:	81 e0       	ldi	r24, 0x01	; 1
    3484:	90 e0       	ldi	r25, 0x00	; 0
    3486:	02 2e       	mov	r0, r18
    3488:	02 c0       	rjmp	.+4      	; 0x348e <DIO_u8SetPinValue+0xb8>
    348a:	88 0f       	add	r24, r24
    348c:	99 1f       	adc	r25, r25
    348e:	0a 94       	dec	r0
    3490:	e2 f7       	brpl	.-8      	; 0x348a <DIO_u8SetPinValue+0xb4>
    3492:	80 95       	com	r24
    3494:	84 23       	and	r24, r20
    3496:	8c 93       	st	X, r24
    3498:	a6 c0       	rjmp	.+332    	; 0x35e6 <DIO_u8SetPinValue+0x210>
			break;
		case PORT_C :
			CLR_BIT(PORTC,Copy_u8Pin);
    349a:	a5 e3       	ldi	r26, 0x35	; 53
    349c:	b0 e0       	ldi	r27, 0x00	; 0
    349e:	e5 e3       	ldi	r30, 0x35	; 53
    34a0:	f0 e0       	ldi	r31, 0x00	; 0
    34a2:	80 81       	ld	r24, Z
    34a4:	48 2f       	mov	r20, r24
    34a6:	8b 81       	ldd	r24, Y+3	; 0x03
    34a8:	28 2f       	mov	r18, r24
    34aa:	30 e0       	ldi	r19, 0x00	; 0
    34ac:	81 e0       	ldi	r24, 0x01	; 1
    34ae:	90 e0       	ldi	r25, 0x00	; 0
    34b0:	02 2e       	mov	r0, r18
    34b2:	02 c0       	rjmp	.+4      	; 0x34b8 <DIO_u8SetPinValue+0xe2>
    34b4:	88 0f       	add	r24, r24
    34b6:	99 1f       	adc	r25, r25
    34b8:	0a 94       	dec	r0
    34ba:	e2 f7       	brpl	.-8      	; 0x34b4 <DIO_u8SetPinValue+0xde>
    34bc:	80 95       	com	r24
    34be:	84 23       	and	r24, r20
    34c0:	8c 93       	st	X, r24
    34c2:	91 c0       	rjmp	.+290    	; 0x35e6 <DIO_u8SetPinValue+0x210>
			break;
		case PORT_D :
			CLR_BIT(PORTD,Copy_u8Pin);
    34c4:	a2 e3       	ldi	r26, 0x32	; 50
    34c6:	b0 e0       	ldi	r27, 0x00	; 0
    34c8:	e2 e3       	ldi	r30, 0x32	; 50
    34ca:	f0 e0       	ldi	r31, 0x00	; 0
    34cc:	80 81       	ld	r24, Z
    34ce:	48 2f       	mov	r20, r24
    34d0:	8b 81       	ldd	r24, Y+3	; 0x03
    34d2:	28 2f       	mov	r18, r24
    34d4:	30 e0       	ldi	r19, 0x00	; 0
    34d6:	81 e0       	ldi	r24, 0x01	; 1
    34d8:	90 e0       	ldi	r25, 0x00	; 0
    34da:	02 2e       	mov	r0, r18
    34dc:	02 c0       	rjmp	.+4      	; 0x34e2 <DIO_u8SetPinValue+0x10c>
    34de:	88 0f       	add	r24, r24
    34e0:	99 1f       	adc	r25, r25
    34e2:	0a 94       	dec	r0
    34e4:	e2 f7       	brpl	.-8      	; 0x34de <DIO_u8SetPinValue+0x108>
    34e6:	80 95       	com	r24
    34e8:	84 23       	and	r24, r20
    34ea:	8c 93       	st	X, r24
    34ec:	7c c0       	rjmp	.+248    	; 0x35e6 <DIO_u8SetPinValue+0x210>
			break;
		default:
			Local_u8ErrorState =1;
    34ee:	81 e0       	ldi	r24, 0x01	; 1
    34f0:	89 83       	std	Y+1, r24	; 0x01
    34f2:	79 c0       	rjmp	.+242    	; 0x35e6 <DIO_u8SetPinValue+0x210>
			break;
		}
	}
	else if(Copy_u8Value == HIGH)
    34f4:	8c 81       	ldd	r24, Y+4	; 0x04
    34f6:	81 30       	cpi	r24, 0x01	; 1
    34f8:	09 f0       	breq	.+2      	; 0x34fc <DIO_u8SetPinValue+0x126>
    34fa:	73 c0       	rjmp	.+230    	; 0x35e2 <DIO_u8SetPinValue+0x20c>
	{
		switch (Copy_u8Port)
    34fc:	8a 81       	ldd	r24, Y+2	; 0x02
    34fe:	28 2f       	mov	r18, r24
    3500:	30 e0       	ldi	r19, 0x00	; 0
    3502:	3e 83       	std	Y+6, r19	; 0x06
    3504:	2d 83       	std	Y+5, r18	; 0x05
    3506:	8d 81       	ldd	r24, Y+5	; 0x05
    3508:	9e 81       	ldd	r25, Y+6	; 0x06
    350a:	82 30       	cpi	r24, 0x02	; 2
    350c:	91 05       	cpc	r25, r1
    350e:	51 f1       	breq	.+84     	; 0x3564 <DIO_u8SetPinValue+0x18e>
    3510:	2d 81       	ldd	r18, Y+5	; 0x05
    3512:	3e 81       	ldd	r19, Y+6	; 0x06
    3514:	23 30       	cpi	r18, 0x03	; 3
    3516:	31 05       	cpc	r19, r1
    3518:	34 f4       	brge	.+12     	; 0x3526 <DIO_u8SetPinValue+0x150>
    351a:	8d 81       	ldd	r24, Y+5	; 0x05
    351c:	9e 81       	ldd	r25, Y+6	; 0x06
    351e:	81 30       	cpi	r24, 0x01	; 1
    3520:	91 05       	cpc	r25, r1
    3522:	61 f0       	breq	.+24     	; 0x353c <DIO_u8SetPinValue+0x166>
    3524:	5b c0       	rjmp	.+182    	; 0x35dc <DIO_u8SetPinValue+0x206>
    3526:	2d 81       	ldd	r18, Y+5	; 0x05
    3528:	3e 81       	ldd	r19, Y+6	; 0x06
    352a:	23 30       	cpi	r18, 0x03	; 3
    352c:	31 05       	cpc	r19, r1
    352e:	71 f1       	breq	.+92     	; 0x358c <DIO_u8SetPinValue+0x1b6>
    3530:	8d 81       	ldd	r24, Y+5	; 0x05
    3532:	9e 81       	ldd	r25, Y+6	; 0x06
    3534:	84 30       	cpi	r24, 0x04	; 4
    3536:	91 05       	cpc	r25, r1
    3538:	e9 f1       	breq	.+122    	; 0x35b4 <DIO_u8SetPinValue+0x1de>
    353a:	50 c0       	rjmp	.+160    	; 0x35dc <DIO_u8SetPinValue+0x206>
		{
		case PORT_A :
			SET_BIT(PORTA,Copy_u8Pin);
    353c:	ab e3       	ldi	r26, 0x3B	; 59
    353e:	b0 e0       	ldi	r27, 0x00	; 0
    3540:	eb e3       	ldi	r30, 0x3B	; 59
    3542:	f0 e0       	ldi	r31, 0x00	; 0
    3544:	80 81       	ld	r24, Z
    3546:	48 2f       	mov	r20, r24
    3548:	8b 81       	ldd	r24, Y+3	; 0x03
    354a:	28 2f       	mov	r18, r24
    354c:	30 e0       	ldi	r19, 0x00	; 0
    354e:	81 e0       	ldi	r24, 0x01	; 1
    3550:	90 e0       	ldi	r25, 0x00	; 0
    3552:	02 2e       	mov	r0, r18
    3554:	02 c0       	rjmp	.+4      	; 0x355a <DIO_u8SetPinValue+0x184>
    3556:	88 0f       	add	r24, r24
    3558:	99 1f       	adc	r25, r25
    355a:	0a 94       	dec	r0
    355c:	e2 f7       	brpl	.-8      	; 0x3556 <DIO_u8SetPinValue+0x180>
    355e:	84 2b       	or	r24, r20
    3560:	8c 93       	st	X, r24
    3562:	41 c0       	rjmp	.+130    	; 0x35e6 <DIO_u8SetPinValue+0x210>
			break;
		case PORT_B :
			SET_BIT(PORTB,Copy_u8Pin);
    3564:	a8 e3       	ldi	r26, 0x38	; 56
    3566:	b0 e0       	ldi	r27, 0x00	; 0
    3568:	e8 e3       	ldi	r30, 0x38	; 56
    356a:	f0 e0       	ldi	r31, 0x00	; 0
    356c:	80 81       	ld	r24, Z
    356e:	48 2f       	mov	r20, r24
    3570:	8b 81       	ldd	r24, Y+3	; 0x03
    3572:	28 2f       	mov	r18, r24
    3574:	30 e0       	ldi	r19, 0x00	; 0
    3576:	81 e0       	ldi	r24, 0x01	; 1
    3578:	90 e0       	ldi	r25, 0x00	; 0
    357a:	02 2e       	mov	r0, r18
    357c:	02 c0       	rjmp	.+4      	; 0x3582 <DIO_u8SetPinValue+0x1ac>
    357e:	88 0f       	add	r24, r24
    3580:	99 1f       	adc	r25, r25
    3582:	0a 94       	dec	r0
    3584:	e2 f7       	brpl	.-8      	; 0x357e <DIO_u8SetPinValue+0x1a8>
    3586:	84 2b       	or	r24, r20
    3588:	8c 93       	st	X, r24
    358a:	2d c0       	rjmp	.+90     	; 0x35e6 <DIO_u8SetPinValue+0x210>
			break;
		case PORT_C :
			SET_BIT(PORTC,Copy_u8Pin);
    358c:	a5 e3       	ldi	r26, 0x35	; 53
    358e:	b0 e0       	ldi	r27, 0x00	; 0
    3590:	e5 e3       	ldi	r30, 0x35	; 53
    3592:	f0 e0       	ldi	r31, 0x00	; 0
    3594:	80 81       	ld	r24, Z
    3596:	48 2f       	mov	r20, r24
    3598:	8b 81       	ldd	r24, Y+3	; 0x03
    359a:	28 2f       	mov	r18, r24
    359c:	30 e0       	ldi	r19, 0x00	; 0
    359e:	81 e0       	ldi	r24, 0x01	; 1
    35a0:	90 e0       	ldi	r25, 0x00	; 0
    35a2:	02 2e       	mov	r0, r18
    35a4:	02 c0       	rjmp	.+4      	; 0x35aa <DIO_u8SetPinValue+0x1d4>
    35a6:	88 0f       	add	r24, r24
    35a8:	99 1f       	adc	r25, r25
    35aa:	0a 94       	dec	r0
    35ac:	e2 f7       	brpl	.-8      	; 0x35a6 <DIO_u8SetPinValue+0x1d0>
    35ae:	84 2b       	or	r24, r20
    35b0:	8c 93       	st	X, r24
    35b2:	19 c0       	rjmp	.+50     	; 0x35e6 <DIO_u8SetPinValue+0x210>
			break;
		case PORT_D :
			SET_BIT(PORTD,Copy_u8Pin);
    35b4:	a2 e3       	ldi	r26, 0x32	; 50
    35b6:	b0 e0       	ldi	r27, 0x00	; 0
    35b8:	e2 e3       	ldi	r30, 0x32	; 50
    35ba:	f0 e0       	ldi	r31, 0x00	; 0
    35bc:	80 81       	ld	r24, Z
    35be:	48 2f       	mov	r20, r24
    35c0:	8b 81       	ldd	r24, Y+3	; 0x03
    35c2:	28 2f       	mov	r18, r24
    35c4:	30 e0       	ldi	r19, 0x00	; 0
    35c6:	81 e0       	ldi	r24, 0x01	; 1
    35c8:	90 e0       	ldi	r25, 0x00	; 0
    35ca:	02 2e       	mov	r0, r18
    35cc:	02 c0       	rjmp	.+4      	; 0x35d2 <DIO_u8SetPinValue+0x1fc>
    35ce:	88 0f       	add	r24, r24
    35d0:	99 1f       	adc	r25, r25
    35d2:	0a 94       	dec	r0
    35d4:	e2 f7       	brpl	.-8      	; 0x35ce <DIO_u8SetPinValue+0x1f8>
    35d6:	84 2b       	or	r24, r20
    35d8:	8c 93       	st	X, r24
    35da:	05 c0       	rjmp	.+10     	; 0x35e6 <DIO_u8SetPinValue+0x210>
			break;
		default:
			Local_u8ErrorState =1;
    35dc:	81 e0       	ldi	r24, 0x01	; 1
    35de:	89 83       	std	Y+1, r24	; 0x01
    35e0:	02 c0       	rjmp	.+4      	; 0x35e6 <DIO_u8SetPinValue+0x210>
			break;
		}
	}
	else
	{
		Local_u8ErrorState = 1;
    35e2:	81 e0       	ldi	r24, 0x01	; 1
    35e4:	89 83       	std	Y+1, r24	; 0x01
	}
	return Local_u8ErrorState;
    35e6:	89 81       	ldd	r24, Y+1	; 0x01
}
    35e8:	28 96       	adiw	r28, 0x08	; 8
    35ea:	0f b6       	in	r0, 0x3f	; 63
    35ec:	f8 94       	cli
    35ee:	de bf       	out	0x3e, r29	; 62
    35f0:	0f be       	out	0x3f, r0	; 63
    35f2:	cd bf       	out	0x3d, r28	; 61
    35f4:	cf 91       	pop	r28
    35f6:	df 91       	pop	r29
    35f8:	08 95       	ret

000035fa <DIO_u8SetPortValue>:
u8 DIO_u8SetPortValue(u8 Copy_u8Port, u8 Copy_u8Value)
{
    35fa:	df 93       	push	r29
    35fc:	cf 93       	push	r28
    35fe:	00 d0       	rcall	.+0      	; 0x3600 <DIO_u8SetPortValue+0x6>
    3600:	00 d0       	rcall	.+0      	; 0x3602 <DIO_u8SetPortValue+0x8>
    3602:	0f 92       	push	r0
    3604:	cd b7       	in	r28, 0x3d	; 61
    3606:	de b7       	in	r29, 0x3e	; 62
    3608:	8a 83       	std	Y+2, r24	; 0x02
    360a:	6b 83       	std	Y+3, r22	; 0x03
	u8 Local_u8ErrorState =0;
    360c:	19 82       	std	Y+1, r1	; 0x01
	switch (Copy_u8Port)
    360e:	8a 81       	ldd	r24, Y+2	; 0x02
    3610:	28 2f       	mov	r18, r24
    3612:	30 e0       	ldi	r19, 0x00	; 0
    3614:	3d 83       	std	Y+5, r19	; 0x05
    3616:	2c 83       	std	Y+4, r18	; 0x04
    3618:	8c 81       	ldd	r24, Y+4	; 0x04
    361a:	9d 81       	ldd	r25, Y+5	; 0x05
    361c:	82 30       	cpi	r24, 0x02	; 2
    361e:	91 05       	cpc	r25, r1
    3620:	d9 f0       	breq	.+54     	; 0x3658 <DIO_u8SetPortValue+0x5e>
    3622:	2c 81       	ldd	r18, Y+4	; 0x04
    3624:	3d 81       	ldd	r19, Y+5	; 0x05
    3626:	23 30       	cpi	r18, 0x03	; 3
    3628:	31 05       	cpc	r19, r1
    362a:	34 f4       	brge	.+12     	; 0x3638 <DIO_u8SetPortValue+0x3e>
    362c:	8c 81       	ldd	r24, Y+4	; 0x04
    362e:	9d 81       	ldd	r25, Y+5	; 0x05
    3630:	81 30       	cpi	r24, 0x01	; 1
    3632:	91 05       	cpc	r25, r1
    3634:	61 f0       	breq	.+24     	; 0x364e <DIO_u8SetPortValue+0x54>
    3636:	1f c0       	rjmp	.+62     	; 0x3676 <DIO_u8SetPortValue+0x7c>
    3638:	2c 81       	ldd	r18, Y+4	; 0x04
    363a:	3d 81       	ldd	r19, Y+5	; 0x05
    363c:	23 30       	cpi	r18, 0x03	; 3
    363e:	31 05       	cpc	r19, r1
    3640:	81 f0       	breq	.+32     	; 0x3662 <DIO_u8SetPortValue+0x68>
    3642:	8c 81       	ldd	r24, Y+4	; 0x04
    3644:	9d 81       	ldd	r25, Y+5	; 0x05
    3646:	84 30       	cpi	r24, 0x04	; 4
    3648:	91 05       	cpc	r25, r1
    364a:	81 f0       	breq	.+32     	; 0x366c <DIO_u8SetPortValue+0x72>
    364c:	14 c0       	rjmp	.+40     	; 0x3676 <DIO_u8SetPortValue+0x7c>
	{
	case PORT_A :
		PORTA = Copy_u8Value;
    364e:	eb e3       	ldi	r30, 0x3B	; 59
    3650:	f0 e0       	ldi	r31, 0x00	; 0
    3652:	8b 81       	ldd	r24, Y+3	; 0x03
    3654:	80 83       	st	Z, r24
    3656:	11 c0       	rjmp	.+34     	; 0x367a <DIO_u8SetPortValue+0x80>
		break;

	case PORT_B :
		PORTB = Copy_u8Value ;
    3658:	e8 e3       	ldi	r30, 0x38	; 56
    365a:	f0 e0       	ldi	r31, 0x00	; 0
    365c:	8b 81       	ldd	r24, Y+3	; 0x03
    365e:	80 83       	st	Z, r24
    3660:	0c c0       	rjmp	.+24     	; 0x367a <DIO_u8SetPortValue+0x80>
		break;

	case PORT_C :
		PORTC = Copy_u8Value ;
    3662:	e5 e3       	ldi	r30, 0x35	; 53
    3664:	f0 e0       	ldi	r31, 0x00	; 0
    3666:	8b 81       	ldd	r24, Y+3	; 0x03
    3668:	80 83       	st	Z, r24
    366a:	07 c0       	rjmp	.+14     	; 0x367a <DIO_u8SetPortValue+0x80>
		break;

	case PORT_D :
		PORTD = Copy_u8Value ;
    366c:	e2 e3       	ldi	r30, 0x32	; 50
    366e:	f0 e0       	ldi	r31, 0x00	; 0
    3670:	8b 81       	ldd	r24, Y+3	; 0x03
    3672:	80 83       	st	Z, r24
    3674:	02 c0       	rjmp	.+4      	; 0x367a <DIO_u8SetPortValue+0x80>
		break;

	default :

		Local_u8ErrorState =1;
    3676:	81 e0       	ldi	r24, 0x01	; 1
    3678:	89 83       	std	Y+1, r24	; 0x01
		break;
	}
	return Local_u8ErrorState;
    367a:	89 81       	ldd	r24, Y+1	; 0x01
}
    367c:	0f 90       	pop	r0
    367e:	0f 90       	pop	r0
    3680:	0f 90       	pop	r0
    3682:	0f 90       	pop	r0
    3684:	0f 90       	pop	r0
    3686:	cf 91       	pop	r28
    3688:	df 91       	pop	r29
    368a:	08 95       	ret

0000368c <DIO_u8GetPinValue>:
u8 DIO_u8GetPinValue(u8 Copy_u8Port, u8 Copy_u8Pin, u8* Copy_u8Value)
{
    368c:	df 93       	push	r29
    368e:	cf 93       	push	r28
    3690:	cd b7       	in	r28, 0x3d	; 61
    3692:	de b7       	in	r29, 0x3e	; 62
    3694:	27 97       	sbiw	r28, 0x07	; 7
    3696:	0f b6       	in	r0, 0x3f	; 63
    3698:	f8 94       	cli
    369a:	de bf       	out	0x3e, r29	; 62
    369c:	0f be       	out	0x3f, r0	; 63
    369e:	cd bf       	out	0x3d, r28	; 61
    36a0:	8a 83       	std	Y+2, r24	; 0x02
    36a2:	6b 83       	std	Y+3, r22	; 0x03
    36a4:	5d 83       	std	Y+5, r21	; 0x05
    36a6:	4c 83       	std	Y+4, r20	; 0x04
	u8 Local_u8ErrorState =0;
    36a8:	19 82       	std	Y+1, r1	; 0x01
	if((Copy_u8Value == NULL) || (Copy_u8Pin > 7))
    36aa:	8c 81       	ldd	r24, Y+4	; 0x04
    36ac:	9d 81       	ldd	r25, Y+5	; 0x05
    36ae:	00 97       	sbiw	r24, 0x00	; 0
    36b0:	19 f0       	breq	.+6      	; 0x36b8 <DIO_u8GetPinValue+0x2c>
    36b2:	8b 81       	ldd	r24, Y+3	; 0x03
    36b4:	88 30       	cpi	r24, 0x08	; 8
    36b6:	10 f0       	brcs	.+4      	; 0x36bc <DIO_u8GetPinValue+0x30>
		Local_u8ErrorState =1;
    36b8:	81 e0       	ldi	r24, 0x01	; 1
    36ba:	89 83       	std	Y+1, r24	; 0x01
	switch (Copy_u8Port)
    36bc:	8a 81       	ldd	r24, Y+2	; 0x02
    36be:	28 2f       	mov	r18, r24
    36c0:	30 e0       	ldi	r19, 0x00	; 0
    36c2:	3f 83       	std	Y+7, r19	; 0x07
    36c4:	2e 83       	std	Y+6, r18	; 0x06
    36c6:	4e 81       	ldd	r20, Y+6	; 0x06
    36c8:	5f 81       	ldd	r21, Y+7	; 0x07
    36ca:	42 30       	cpi	r20, 0x02	; 2
    36cc:	51 05       	cpc	r21, r1
    36ce:	59 f1       	breq	.+86     	; 0x3726 <DIO_u8GetPinValue+0x9a>
    36d0:	8e 81       	ldd	r24, Y+6	; 0x06
    36d2:	9f 81       	ldd	r25, Y+7	; 0x07
    36d4:	83 30       	cpi	r24, 0x03	; 3
    36d6:	91 05       	cpc	r25, r1
    36d8:	34 f4       	brge	.+12     	; 0x36e6 <DIO_u8GetPinValue+0x5a>
    36da:	2e 81       	ldd	r18, Y+6	; 0x06
    36dc:	3f 81       	ldd	r19, Y+7	; 0x07
    36de:	21 30       	cpi	r18, 0x01	; 1
    36e0:	31 05       	cpc	r19, r1
    36e2:	69 f0       	breq	.+26     	; 0x36fe <DIO_u8GetPinValue+0x72>
    36e4:	5c c0       	rjmp	.+184    	; 0x379e <DIO_u8GetPinValue+0x112>
    36e6:	4e 81       	ldd	r20, Y+6	; 0x06
    36e8:	5f 81       	ldd	r21, Y+7	; 0x07
    36ea:	43 30       	cpi	r20, 0x03	; 3
    36ec:	51 05       	cpc	r21, r1
    36ee:	79 f1       	breq	.+94     	; 0x374e <DIO_u8GetPinValue+0xc2>
    36f0:	8e 81       	ldd	r24, Y+6	; 0x06
    36f2:	9f 81       	ldd	r25, Y+7	; 0x07
    36f4:	84 30       	cpi	r24, 0x04	; 4
    36f6:	91 05       	cpc	r25, r1
    36f8:	09 f4       	brne	.+2      	; 0x36fc <DIO_u8GetPinValue+0x70>
    36fa:	3d c0       	rjmp	.+122    	; 0x3776 <DIO_u8GetPinValue+0xea>
    36fc:	50 c0       	rjmp	.+160    	; 0x379e <DIO_u8GetPinValue+0x112>
	{
	case PORT_A :
		*Copy_u8Value = GET_BIT(PINA,Copy_u8Pin);
    36fe:	e9 e3       	ldi	r30, 0x39	; 57
    3700:	f0 e0       	ldi	r31, 0x00	; 0
    3702:	80 81       	ld	r24, Z
    3704:	28 2f       	mov	r18, r24
    3706:	30 e0       	ldi	r19, 0x00	; 0
    3708:	8b 81       	ldd	r24, Y+3	; 0x03
    370a:	88 2f       	mov	r24, r24
    370c:	90 e0       	ldi	r25, 0x00	; 0
    370e:	a9 01       	movw	r20, r18
    3710:	02 c0       	rjmp	.+4      	; 0x3716 <DIO_u8GetPinValue+0x8a>
    3712:	55 95       	asr	r21
    3714:	47 95       	ror	r20
    3716:	8a 95       	dec	r24
    3718:	e2 f7       	brpl	.-8      	; 0x3712 <DIO_u8GetPinValue+0x86>
    371a:	ca 01       	movw	r24, r20
    371c:	81 70       	andi	r24, 0x01	; 1
    371e:	ec 81       	ldd	r30, Y+4	; 0x04
    3720:	fd 81       	ldd	r31, Y+5	; 0x05
    3722:	80 83       	st	Z, r24
    3724:	3e c0       	rjmp	.+124    	; 0x37a2 <DIO_u8GetPinValue+0x116>
		break;
	case PORT_B :
		*Copy_u8Value = GET_BIT(PINB,Copy_u8Pin);
    3726:	e6 e3       	ldi	r30, 0x36	; 54
    3728:	f0 e0       	ldi	r31, 0x00	; 0
    372a:	80 81       	ld	r24, Z
    372c:	28 2f       	mov	r18, r24
    372e:	30 e0       	ldi	r19, 0x00	; 0
    3730:	8b 81       	ldd	r24, Y+3	; 0x03
    3732:	88 2f       	mov	r24, r24
    3734:	90 e0       	ldi	r25, 0x00	; 0
    3736:	a9 01       	movw	r20, r18
    3738:	02 c0       	rjmp	.+4      	; 0x373e <DIO_u8GetPinValue+0xb2>
    373a:	55 95       	asr	r21
    373c:	47 95       	ror	r20
    373e:	8a 95       	dec	r24
    3740:	e2 f7       	brpl	.-8      	; 0x373a <DIO_u8GetPinValue+0xae>
    3742:	ca 01       	movw	r24, r20
    3744:	81 70       	andi	r24, 0x01	; 1
    3746:	ec 81       	ldd	r30, Y+4	; 0x04
    3748:	fd 81       	ldd	r31, Y+5	; 0x05
    374a:	80 83       	st	Z, r24
    374c:	2a c0       	rjmp	.+84     	; 0x37a2 <DIO_u8GetPinValue+0x116>
		break;
	case PORT_C :
		*Copy_u8Value = GET_BIT(PINC,Copy_u8Pin);
    374e:	e3 e3       	ldi	r30, 0x33	; 51
    3750:	f0 e0       	ldi	r31, 0x00	; 0
    3752:	80 81       	ld	r24, Z
    3754:	28 2f       	mov	r18, r24
    3756:	30 e0       	ldi	r19, 0x00	; 0
    3758:	8b 81       	ldd	r24, Y+3	; 0x03
    375a:	88 2f       	mov	r24, r24
    375c:	90 e0       	ldi	r25, 0x00	; 0
    375e:	a9 01       	movw	r20, r18
    3760:	02 c0       	rjmp	.+4      	; 0x3766 <DIO_u8GetPinValue+0xda>
    3762:	55 95       	asr	r21
    3764:	47 95       	ror	r20
    3766:	8a 95       	dec	r24
    3768:	e2 f7       	brpl	.-8      	; 0x3762 <DIO_u8GetPinValue+0xd6>
    376a:	ca 01       	movw	r24, r20
    376c:	81 70       	andi	r24, 0x01	; 1
    376e:	ec 81       	ldd	r30, Y+4	; 0x04
    3770:	fd 81       	ldd	r31, Y+5	; 0x05
    3772:	80 83       	st	Z, r24
    3774:	16 c0       	rjmp	.+44     	; 0x37a2 <DIO_u8GetPinValue+0x116>
		break;
	case PORT_D :
		*Copy_u8Value = GET_BIT(PIND,Copy_u8Pin);
    3776:	e0 e3       	ldi	r30, 0x30	; 48
    3778:	f0 e0       	ldi	r31, 0x00	; 0
    377a:	80 81       	ld	r24, Z
    377c:	28 2f       	mov	r18, r24
    377e:	30 e0       	ldi	r19, 0x00	; 0
    3780:	8b 81       	ldd	r24, Y+3	; 0x03
    3782:	88 2f       	mov	r24, r24
    3784:	90 e0       	ldi	r25, 0x00	; 0
    3786:	a9 01       	movw	r20, r18
    3788:	02 c0       	rjmp	.+4      	; 0x378e <DIO_u8GetPinValue+0x102>
    378a:	55 95       	asr	r21
    378c:	47 95       	ror	r20
    378e:	8a 95       	dec	r24
    3790:	e2 f7       	brpl	.-8      	; 0x378a <DIO_u8GetPinValue+0xfe>
    3792:	ca 01       	movw	r24, r20
    3794:	81 70       	andi	r24, 0x01	; 1
    3796:	ec 81       	ldd	r30, Y+4	; 0x04
    3798:	fd 81       	ldd	r31, Y+5	; 0x05
    379a:	80 83       	st	Z, r24
    379c:	02 c0       	rjmp	.+4      	; 0x37a2 <DIO_u8GetPinValue+0x116>
		break;
	default:
		Local_u8ErrorState =1;
    379e:	81 e0       	ldi	r24, 0x01	; 1
    37a0:	89 83       	std	Y+1, r24	; 0x01
		break;
	}
	return Local_u8ErrorState;
    37a2:	89 81       	ldd	r24, Y+1	; 0x01
}
    37a4:	27 96       	adiw	r28, 0x07	; 7
    37a6:	0f b6       	in	r0, 0x3f	; 63
    37a8:	f8 94       	cli
    37aa:	de bf       	out	0x3e, r29	; 62
    37ac:	0f be       	out	0x3f, r0	; 63
    37ae:	cd bf       	out	0x3d, r28	; 61
    37b0:	cf 91       	pop	r28
    37b2:	df 91       	pop	r29
    37b4:	08 95       	ret

000037b6 <DIO_u8GetPortValue>:
u8 DIO_u8GetPortValue(u8 Copy_u8Port, u8* Copy_u8Value)
{
    37b6:	df 93       	push	r29
    37b8:	cf 93       	push	r28
    37ba:	00 d0       	rcall	.+0      	; 0x37bc <DIO_u8GetPortValue+0x6>
    37bc:	00 d0       	rcall	.+0      	; 0x37be <DIO_u8GetPortValue+0x8>
    37be:	00 d0       	rcall	.+0      	; 0x37c0 <DIO_u8GetPortValue+0xa>
    37c0:	cd b7       	in	r28, 0x3d	; 61
    37c2:	de b7       	in	r29, 0x3e	; 62
    37c4:	8a 83       	std	Y+2, r24	; 0x02
    37c6:	7c 83       	std	Y+4, r23	; 0x04
    37c8:	6b 83       	std	Y+3, r22	; 0x03
	u8 Local_u8ErrorState =0;
    37ca:	19 82       	std	Y+1, r1	; 0x01
	switch(Copy_u8Port)
    37cc:	8a 81       	ldd	r24, Y+2	; 0x02
    37ce:	28 2f       	mov	r18, r24
    37d0:	30 e0       	ldi	r19, 0x00	; 0
    37d2:	3e 83       	std	Y+6, r19	; 0x06
    37d4:	2d 83       	std	Y+5, r18	; 0x05
    37d6:	8d 81       	ldd	r24, Y+5	; 0x05
    37d8:	9e 81       	ldd	r25, Y+6	; 0x06
    37da:	82 30       	cpi	r24, 0x02	; 2
    37dc:	91 05       	cpc	r25, r1
    37de:	e9 f0       	breq	.+58     	; 0x381a <DIO_u8GetPortValue+0x64>
    37e0:	2d 81       	ldd	r18, Y+5	; 0x05
    37e2:	3e 81       	ldd	r19, Y+6	; 0x06
    37e4:	23 30       	cpi	r18, 0x03	; 3
    37e6:	31 05       	cpc	r19, r1
    37e8:	34 f4       	brge	.+12     	; 0x37f6 <DIO_u8GetPortValue+0x40>
    37ea:	8d 81       	ldd	r24, Y+5	; 0x05
    37ec:	9e 81       	ldd	r25, Y+6	; 0x06
    37ee:	81 30       	cpi	r24, 0x01	; 1
    37f0:	91 05       	cpc	r25, r1
    37f2:	61 f0       	breq	.+24     	; 0x380c <DIO_u8GetPortValue+0x56>
    37f4:	27 c0       	rjmp	.+78     	; 0x3844 <DIO_u8GetPortValue+0x8e>
    37f6:	2d 81       	ldd	r18, Y+5	; 0x05
    37f8:	3e 81       	ldd	r19, Y+6	; 0x06
    37fa:	23 30       	cpi	r18, 0x03	; 3
    37fc:	31 05       	cpc	r19, r1
    37fe:	a1 f0       	breq	.+40     	; 0x3828 <DIO_u8GetPortValue+0x72>
    3800:	8d 81       	ldd	r24, Y+5	; 0x05
    3802:	9e 81       	ldd	r25, Y+6	; 0x06
    3804:	84 30       	cpi	r24, 0x04	; 4
    3806:	91 05       	cpc	r25, r1
    3808:	b1 f0       	breq	.+44     	; 0x3836 <DIO_u8GetPortValue+0x80>
    380a:	1c c0       	rjmp	.+56     	; 0x3844 <DIO_u8GetPortValue+0x8e>
	{
	case PORT_A :
		*Copy_u8Value = PINA ;
    380c:	e9 e3       	ldi	r30, 0x39	; 57
    380e:	f0 e0       	ldi	r31, 0x00	; 0
    3810:	80 81       	ld	r24, Z
    3812:	eb 81       	ldd	r30, Y+3	; 0x03
    3814:	fc 81       	ldd	r31, Y+4	; 0x04
    3816:	80 83       	st	Z, r24
    3818:	17 c0       	rjmp	.+46     	; 0x3848 <DIO_u8GetPortValue+0x92>
		break;
	case PORT_B :
		*Copy_u8Value = PINB ;
    381a:	e6 e3       	ldi	r30, 0x36	; 54
    381c:	f0 e0       	ldi	r31, 0x00	; 0
    381e:	80 81       	ld	r24, Z
    3820:	eb 81       	ldd	r30, Y+3	; 0x03
    3822:	fc 81       	ldd	r31, Y+4	; 0x04
    3824:	80 83       	st	Z, r24
    3826:	10 c0       	rjmp	.+32     	; 0x3848 <DIO_u8GetPortValue+0x92>
		break;
	case PORT_C :
		*Copy_u8Value = PINC ;
    3828:	e3 e3       	ldi	r30, 0x33	; 51
    382a:	f0 e0       	ldi	r31, 0x00	; 0
    382c:	80 81       	ld	r24, Z
    382e:	eb 81       	ldd	r30, Y+3	; 0x03
    3830:	fc 81       	ldd	r31, Y+4	; 0x04
    3832:	80 83       	st	Z, r24
    3834:	09 c0       	rjmp	.+18     	; 0x3848 <DIO_u8GetPortValue+0x92>
		break;
	case PORT_D :
		*Copy_u8Value = PIND ;
    3836:	e0 e3       	ldi	r30, 0x30	; 48
    3838:	f0 e0       	ldi	r31, 0x00	; 0
    383a:	80 81       	ld	r24, Z
    383c:	eb 81       	ldd	r30, Y+3	; 0x03
    383e:	fc 81       	ldd	r31, Y+4	; 0x04
    3840:	80 83       	st	Z, r24
    3842:	02 c0       	rjmp	.+4      	; 0x3848 <DIO_u8GetPortValue+0x92>
		break;
	default :
		Local_u8ErrorState =1;
    3844:	81 e0       	ldi	r24, 0x01	; 1
    3846:	89 83       	std	Y+1, r24	; 0x01
		break;
	}
	return Local_u8ErrorState ;
    3848:	89 81       	ldd	r24, Y+1	; 0x01
}
    384a:	26 96       	adiw	r28, 0x06	; 6
    384c:	0f b6       	in	r0, 0x3f	; 63
    384e:	f8 94       	cli
    3850:	de bf       	out	0x3e, r29	; 62
    3852:	0f be       	out	0x3f, r0	; 63
    3854:	cd bf       	out	0x3d, r28	; 61
    3856:	cf 91       	pop	r28
    3858:	df 91       	pop	r29
    385a:	08 95       	ret

0000385c <Map>:

f32 Map(s32 InputValue,s32 InputMin,s32 InputMax,s32 OutMin,s32 OutMax)
{
    385c:	af 92       	push	r10
    385e:	bf 92       	push	r11
    3860:	cf 92       	push	r12
    3862:	df 92       	push	r13
    3864:	ef 92       	push	r14
    3866:	ff 92       	push	r15
    3868:	0f 93       	push	r16
    386a:	1f 93       	push	r17
    386c:	df 93       	push	r29
    386e:	cf 93       	push	r28
    3870:	cd b7       	in	r28, 0x3d	; 61
    3872:	de b7       	in	r29, 0x3e	; 62
    3874:	68 97       	sbiw	r28, 0x18	; 24
    3876:	0f b6       	in	r0, 0x3f	; 63
    3878:	f8 94       	cli
    387a:	de bf       	out	0x3e, r29	; 62
    387c:	0f be       	out	0x3f, r0	; 63
    387e:	cd bf       	out	0x3d, r28	; 61
    3880:	69 87       	std	Y+9, r22	; 0x09
    3882:	7a 87       	std	Y+10, r23	; 0x0a
    3884:	8b 87       	std	Y+11, r24	; 0x0b
    3886:	9c 87       	std	Y+12, r25	; 0x0c
    3888:	2d 87       	std	Y+13, r18	; 0x0d
    388a:	3e 87       	std	Y+14, r19	; 0x0e
    388c:	4f 87       	std	Y+15, r20	; 0x0f
    388e:	58 8b       	std	Y+16, r21	; 0x10
    3890:	e9 8a       	std	Y+17, r14	; 0x11
    3892:	fa 8a       	std	Y+18, r15	; 0x12
    3894:	0b 8b       	std	Y+19, r16	; 0x13
    3896:	1c 8b       	std	Y+20, r17	; 0x14
    3898:	ad 8a       	std	Y+21, r10	; 0x15
    389a:	be 8a       	std	Y+22, r11	; 0x16
    389c:	cf 8a       	std	Y+23, r12	; 0x17
    389e:	d8 8e       	std	Y+24, r13	; 0x18
	f32 Result =(((OutMax-OutMin)*(InputValue-InputMin))/(InputMax-InputMin));
    38a0:	2d a1       	ldd	r18, Y+37	; 0x25
    38a2:	3e a1       	ldd	r19, Y+38	; 0x26
    38a4:	4f a1       	ldd	r20, Y+39	; 0x27
    38a6:	58 a5       	ldd	r21, Y+40	; 0x28
    38a8:	8d 89       	ldd	r24, Y+21	; 0x15
    38aa:	9e 89       	ldd	r25, Y+22	; 0x16
    38ac:	af 89       	ldd	r26, Y+23	; 0x17
    38ae:	b8 8d       	ldd	r27, Y+24	; 0x18
    38b0:	79 01       	movw	r14, r18
    38b2:	8a 01       	movw	r16, r20
    38b4:	e8 1a       	sub	r14, r24
    38b6:	f9 0a       	sbc	r15, r25
    38b8:	0a 0b       	sbc	r16, r26
    38ba:	1b 0b       	sbc	r17, r27
    38bc:	29 85       	ldd	r18, Y+9	; 0x09
    38be:	3a 85       	ldd	r19, Y+10	; 0x0a
    38c0:	4b 85       	ldd	r20, Y+11	; 0x0b
    38c2:	5c 85       	ldd	r21, Y+12	; 0x0c
    38c4:	8d 85       	ldd	r24, Y+13	; 0x0d
    38c6:	9e 85       	ldd	r25, Y+14	; 0x0e
    38c8:	af 85       	ldd	r26, Y+15	; 0x0f
    38ca:	b8 89       	ldd	r27, Y+16	; 0x10
    38cc:	28 1b       	sub	r18, r24
    38ce:	39 0b       	sbc	r19, r25
    38d0:	4a 0b       	sbc	r20, r26
    38d2:	5b 0b       	sbc	r21, r27
    38d4:	c8 01       	movw	r24, r16
    38d6:	b7 01       	movw	r22, r14
    38d8:	0e 94 5c 1d 	call	0x3ab8	; 0x3ab8 <__mulsi3>
    38dc:	7b 01       	movw	r14, r22
    38de:	8c 01       	movw	r16, r24
    38e0:	29 89       	ldd	r18, Y+17	; 0x11
    38e2:	3a 89       	ldd	r19, Y+18	; 0x12
    38e4:	4b 89       	ldd	r20, Y+19	; 0x13
    38e6:	5c 89       	ldd	r21, Y+20	; 0x14
    38e8:	8d 85       	ldd	r24, Y+13	; 0x0d
    38ea:	9e 85       	ldd	r25, Y+14	; 0x0e
    38ec:	af 85       	ldd	r26, Y+15	; 0x0f
    38ee:	b8 89       	ldd	r27, Y+16	; 0x10
    38f0:	28 1b       	sub	r18, r24
    38f2:	39 0b       	sbc	r19, r25
    38f4:	4a 0b       	sbc	r20, r26
    38f6:	5b 0b       	sbc	r21, r27
    38f8:	c8 01       	movw	r24, r16
    38fa:	b7 01       	movw	r22, r14
    38fc:	0e 94 9d 1d 	call	0x3b3a	; 0x3b3a <__divmodsi4>
    3900:	da 01       	movw	r26, r20
    3902:	c9 01       	movw	r24, r18
    3904:	bc 01       	movw	r22, r24
    3906:	cd 01       	movw	r24, r26
    3908:	0e 94 a9 03 	call	0x752	; 0x752 <__floatsisf>
    390c:	dc 01       	movw	r26, r24
    390e:	cb 01       	movw	r24, r22
    3910:	8d 83       	std	Y+5, r24	; 0x05
    3912:	9e 83       	std	Y+6, r25	; 0x06
    3914:	af 83       	std	Y+7, r26	; 0x07
    3916:	b8 87       	std	Y+8, r27	; 0x08
	f32 OutValue =Result+OutMin;
    3918:	6d 89       	ldd	r22, Y+21	; 0x15
    391a:	7e 89       	ldd	r23, Y+22	; 0x16
    391c:	8f 89       	ldd	r24, Y+23	; 0x17
    391e:	98 8d       	ldd	r25, Y+24	; 0x18
    3920:	0e 94 a9 03 	call	0x752	; 0x752 <__floatsisf>
    3924:	dc 01       	movw	r26, r24
    3926:	cb 01       	movw	r24, r22
    3928:	bc 01       	movw	r22, r24
    392a:	cd 01       	movw	r24, r26
    392c:	2d 81       	ldd	r18, Y+5	; 0x05
    392e:	3e 81       	ldd	r19, Y+6	; 0x06
    3930:	4f 81       	ldd	r20, Y+7	; 0x07
    3932:	58 85       	ldd	r21, Y+8	; 0x08
    3934:	0e 94 f2 01 	call	0x3e4	; 0x3e4 <__addsf3>
    3938:	dc 01       	movw	r26, r24
    393a:	cb 01       	movw	r24, r22
    393c:	89 83       	std	Y+1, r24	; 0x01
    393e:	9a 83       	std	Y+2, r25	; 0x02
    3940:	ab 83       	std	Y+3, r26	; 0x03
    3942:	bc 83       	std	Y+4, r27	; 0x04
	return OutValue ;
    3944:	89 81       	ldd	r24, Y+1	; 0x01
    3946:	9a 81       	ldd	r25, Y+2	; 0x02
    3948:	ab 81       	ldd	r26, Y+3	; 0x03
    394a:	bc 81       	ldd	r27, Y+4	; 0x04
}
    394c:	bc 01       	movw	r22, r24
    394e:	cd 01       	movw	r24, r26
    3950:	68 96       	adiw	r28, 0x18	; 24
    3952:	0f b6       	in	r0, 0x3f	; 63
    3954:	f8 94       	cli
    3956:	de bf       	out	0x3e, r29	; 62
    3958:	0f be       	out	0x3f, r0	; 63
    395a:	cd bf       	out	0x3d, r28	; 61
    395c:	cf 91       	pop	r28
    395e:	df 91       	pop	r29
    3960:	1f 91       	pop	r17
    3962:	0f 91       	pop	r16
    3964:	ff 90       	pop	r15
    3966:	ef 90       	pop	r14
    3968:	df 90       	pop	r13
    396a:	cf 90       	pop	r12
    396c:	bf 90       	pop	r11
    396e:	af 90       	pop	r10
    3970:	08 95       	ret

00003972 <main>:
#include "COTS/2-HAL/LCD/LCD_interface.h"
#include "COTS/1-MCAL/3-GIE/GIE_interface.h"
#include "COTS/1-MCAL/2-EXTI/EXTI_interface.h"
void LED (void);
void main(void)
{
    3972:	df 93       	push	r29
    3974:	cf 93       	push	r28
    3976:	cd b7       	in	r28, 0x3d	; 61
    3978:	de b7       	in	r29, 0x3e	; 62
	GIE_voidEnable();
    397a:	0e 94 a8 15 	call	0x2b50	; 0x2b50 <GIE_voidEnable>
	DIO_u8SetPinDirection(PORT_A, PIN0, OUTPUT);
    397e:	81 e0       	ldi	r24, 0x01	; 1
    3980:	60 e0       	ldi	r22, 0x00	; 0
    3982:	41 e0       	ldi	r20, 0x01	; 1
    3984:	0e 94 90 18 	call	0x3120	; 0x3120 <DIO_u8SetPinDirection>
	DELYA_voidNonBlockDelay(500,&LED,PERIODIC);
    3988:	22 ed       	ldi	r18, 0xD2	; 210
    398a:	3c e1       	ldi	r19, 0x1C	; 28
    398c:	84 ef       	ldi	r24, 0xF4	; 244
    398e:	91 e0       	ldi	r25, 0x01	; 1
    3990:	b9 01       	movw	r22, r18
    3992:	41 e0       	ldi	r20, 0x01	; 1
    3994:	0e 94 ae 10 	call	0x215c	; 0x215c <DELYA_voidNonBlockDelay>
	while(1)
	{
		DIO_u8SetPinValue(PORT_A, PIN0,HIGH);
    3998:	81 e0       	ldi	r24, 0x01	; 1
    399a:	60 e0       	ldi	r22, 0x00	; 0
    399c:	41 e0       	ldi	r20, 0x01	; 1
    399e:	0e 94 eb 19 	call	0x33d6	; 0x33d6 <DIO_u8SetPinValue>
    39a2:	fa cf       	rjmp	.-12     	; 0x3998 <main+0x26>

000039a4 <LED>:
	}
}

void LED (void)
{
    39a4:	df 93       	push	r29
    39a6:	cf 93       	push	r28
    39a8:	cd b7       	in	r28, 0x3d	; 61
    39aa:	de b7       	in	r29, 0x3e	; 62
    39ac:	2e 97       	sbiw	r28, 0x0e	; 14
    39ae:	0f b6       	in	r0, 0x3f	; 63
    39b0:	f8 94       	cli
    39b2:	de bf       	out	0x3e, r29	; 62
    39b4:	0f be       	out	0x3f, r0	; 63
    39b6:	cd bf       	out	0x3d, r28	; 61
	DIO_u8SetPinValue(PORT_A, PIN0,LOW);
    39b8:	81 e0       	ldi	r24, 0x01	; 1
    39ba:	60 e0       	ldi	r22, 0x00	; 0
    39bc:	40 e0       	ldi	r20, 0x00	; 0
    39be:	0e 94 eb 19 	call	0x33d6	; 0x33d6 <DIO_u8SetPinValue>
    39c2:	80 e0       	ldi	r24, 0x00	; 0
    39c4:	90 e0       	ldi	r25, 0x00	; 0
    39c6:	aa ef       	ldi	r26, 0xFA	; 250
    39c8:	b3 e4       	ldi	r27, 0x43	; 67
    39ca:	8b 87       	std	Y+11, r24	; 0x0b
    39cc:	9c 87       	std	Y+12, r25	; 0x0c
    39ce:	ad 87       	std	Y+13, r26	; 0x0d
    39d0:	be 87       	std	Y+14, r27	; 0x0e
 */
void
_delay_ms(double __ms)
{
	uint16_t __ticks;
	double __tmp = ((F_CPU) / 4e3) * __ms;
    39d2:	6b 85       	ldd	r22, Y+11	; 0x0b
    39d4:	7c 85       	ldd	r23, Y+12	; 0x0c
    39d6:	8d 85       	ldd	r24, Y+13	; 0x0d
    39d8:	9e 85       	ldd	r25, Y+14	; 0x0e
    39da:	20 e0       	ldi	r18, 0x00	; 0
    39dc:	30 e0       	ldi	r19, 0x00	; 0
    39de:	4a ef       	ldi	r20, 0xFA	; 250
    39e0:	54 e4       	ldi	r21, 0x44	; 68
    39e2:	0e 94 1f 02 	call	0x43e	; 0x43e <__mulsf3>
    39e6:	dc 01       	movw	r26, r24
    39e8:	cb 01       	movw	r24, r22
    39ea:	8f 83       	std	Y+7, r24	; 0x07
    39ec:	98 87       	std	Y+8, r25	; 0x08
    39ee:	a9 87       	std	Y+9, r26	; 0x09
    39f0:	ba 87       	std	Y+10, r27	; 0x0a
	if (__tmp < 1.0)
    39f2:	6f 81       	ldd	r22, Y+7	; 0x07
    39f4:	78 85       	ldd	r23, Y+8	; 0x08
    39f6:	89 85       	ldd	r24, Y+9	; 0x09
    39f8:	9a 85       	ldd	r25, Y+10	; 0x0a
    39fa:	20 e0       	ldi	r18, 0x00	; 0
    39fc:	30 e0       	ldi	r19, 0x00	; 0
    39fe:	40 e8       	ldi	r20, 0x80	; 128
    3a00:	5f e3       	ldi	r21, 0x3F	; 63
    3a02:	0e 94 79 03 	call	0x6f2	; 0x6f2 <__ltsf2>
    3a06:	88 23       	and	r24, r24
    3a08:	2c f4       	brge	.+10     	; 0x3a14 <LED+0x70>
		__ticks = 1;
    3a0a:	81 e0       	ldi	r24, 0x01	; 1
    3a0c:	90 e0       	ldi	r25, 0x00	; 0
    3a0e:	9e 83       	std	Y+6, r25	; 0x06
    3a10:	8d 83       	std	Y+5, r24	; 0x05
    3a12:	3f c0       	rjmp	.+126    	; 0x3a92 <LED+0xee>
	else if (__tmp > 65535)
    3a14:	6f 81       	ldd	r22, Y+7	; 0x07
    3a16:	78 85       	ldd	r23, Y+8	; 0x08
    3a18:	89 85       	ldd	r24, Y+9	; 0x09
    3a1a:	9a 85       	ldd	r25, Y+10	; 0x0a
    3a1c:	20 e0       	ldi	r18, 0x00	; 0
    3a1e:	3f ef       	ldi	r19, 0xFF	; 255
    3a20:	4f e7       	ldi	r20, 0x7F	; 127
    3a22:	57 e4       	ldi	r21, 0x47	; 71
    3a24:	0e 94 19 03 	call	0x632	; 0x632 <__gtsf2>
    3a28:	18 16       	cp	r1, r24
    3a2a:	4c f5       	brge	.+82     	; 0x3a7e <LED+0xda>
	{
		//	__ticks = requested delay in 1/10 ms
		__ticks = (uint16_t) (__ms * 10.0);
    3a2c:	6b 85       	ldd	r22, Y+11	; 0x0b
    3a2e:	7c 85       	ldd	r23, Y+12	; 0x0c
    3a30:	8d 85       	ldd	r24, Y+13	; 0x0d
    3a32:	9e 85       	ldd	r25, Y+14	; 0x0e
    3a34:	20 e0       	ldi	r18, 0x00	; 0
    3a36:	30 e0       	ldi	r19, 0x00	; 0
    3a38:	40 e2       	ldi	r20, 0x20	; 32
    3a3a:	51 e4       	ldi	r21, 0x41	; 65
    3a3c:	0e 94 1f 02 	call	0x43e	; 0x43e <__mulsf3>
    3a40:	dc 01       	movw	r26, r24
    3a42:	cb 01       	movw	r24, r22
    3a44:	bc 01       	movw	r22, r24
    3a46:	cd 01       	movw	r24, r26
    3a48:	0e 94 49 00 	call	0x92	; 0x92 <__fixunssfsi>
    3a4c:	dc 01       	movw	r26, r24
    3a4e:	cb 01       	movw	r24, r22
    3a50:	9e 83       	std	Y+6, r25	; 0x06
    3a52:	8d 83       	std	Y+5, r24	; 0x05
    3a54:	0f c0       	rjmp	.+30     	; 0x3a74 <LED+0xd0>
    3a56:	88 ec       	ldi	r24, 0xC8	; 200
    3a58:	90 e0       	ldi	r25, 0x00	; 0
    3a5a:	9c 83       	std	Y+4, r25	; 0x04
    3a5c:	8b 83       	std	Y+3, r24	; 0x03
    3a5e:	8b 81       	ldd	r24, Y+3	; 0x03
    3a60:	9c 81       	ldd	r25, Y+4	; 0x04
    3a62:	01 97       	sbiw	r24, 0x01	; 1
    3a64:	f1 f7       	brne	.-4      	; 0x3a62 <LED+0xbe>
    3a66:	9c 83       	std	Y+4, r25	; 0x04
    3a68:	8b 83       	std	Y+3, r24	; 0x03
		while(__ticks)
		{
			// wait 1/10 ms
			_delay_loop_2(((F_CPU) / 4e3) / 10);
			__ticks --;
    3a6a:	8d 81       	ldd	r24, Y+5	; 0x05
    3a6c:	9e 81       	ldd	r25, Y+6	; 0x06
    3a6e:	01 97       	sbiw	r24, 0x01	; 1
    3a70:	9e 83       	std	Y+6, r25	; 0x06
    3a72:	8d 83       	std	Y+5, r24	; 0x05
		__ticks = 1;
	else if (__tmp > 65535)
	{
		//	__ticks = requested delay in 1/10 ms
		__ticks = (uint16_t) (__ms * 10.0);
		while(__ticks)
    3a74:	8d 81       	ldd	r24, Y+5	; 0x05
    3a76:	9e 81       	ldd	r25, Y+6	; 0x06
    3a78:	00 97       	sbiw	r24, 0x00	; 0
    3a7a:	69 f7       	brne	.-38     	; 0x3a56 <LED+0xb2>
    3a7c:	14 c0       	rjmp	.+40     	; 0x3aa6 <LED+0x102>
			__ticks --;
		}
		return;
	}
	else
		__ticks = (uint16_t)__tmp;
    3a7e:	6f 81       	ldd	r22, Y+7	; 0x07
    3a80:	78 85       	ldd	r23, Y+8	; 0x08
    3a82:	89 85       	ldd	r24, Y+9	; 0x09
    3a84:	9a 85       	ldd	r25, Y+10	; 0x0a
    3a86:	0e 94 49 00 	call	0x92	; 0x92 <__fixunssfsi>
    3a8a:	dc 01       	movw	r26, r24
    3a8c:	cb 01       	movw	r24, r22
    3a8e:	9e 83       	std	Y+6, r25	; 0x06
    3a90:	8d 83       	std	Y+5, r24	; 0x05
    3a92:	8d 81       	ldd	r24, Y+5	; 0x05
    3a94:	9e 81       	ldd	r25, Y+6	; 0x06
    3a96:	9a 83       	std	Y+2, r25	; 0x02
    3a98:	89 83       	std	Y+1, r24	; 0x01
    3a9a:	89 81       	ldd	r24, Y+1	; 0x01
    3a9c:	9a 81       	ldd	r25, Y+2	; 0x02
    3a9e:	01 97       	sbiw	r24, 0x01	; 1
    3aa0:	f1 f7       	brne	.-4      	; 0x3a9e <LED+0xfa>
    3aa2:	9a 83       	std	Y+2, r25	; 0x02
    3aa4:	89 83       	std	Y+1, r24	; 0x01
	_delay_ms(500);
}
    3aa6:	2e 96       	adiw	r28, 0x0e	; 14
    3aa8:	0f b6       	in	r0, 0x3f	; 63
    3aaa:	f8 94       	cli
    3aac:	de bf       	out	0x3e, r29	; 62
    3aae:	0f be       	out	0x3f, r0	; 63
    3ab0:	cd bf       	out	0x3d, r28	; 61
    3ab2:	cf 91       	pop	r28
    3ab4:	df 91       	pop	r29
    3ab6:	08 95       	ret

00003ab8 <__mulsi3>:
    3ab8:	62 9f       	mul	r22, r18
    3aba:	d0 01       	movw	r26, r0
    3abc:	73 9f       	mul	r23, r19
    3abe:	f0 01       	movw	r30, r0
    3ac0:	82 9f       	mul	r24, r18
    3ac2:	e0 0d       	add	r30, r0
    3ac4:	f1 1d       	adc	r31, r1
    3ac6:	64 9f       	mul	r22, r20
    3ac8:	e0 0d       	add	r30, r0
    3aca:	f1 1d       	adc	r31, r1
    3acc:	92 9f       	mul	r25, r18
    3ace:	f0 0d       	add	r31, r0
    3ad0:	83 9f       	mul	r24, r19
    3ad2:	f0 0d       	add	r31, r0
    3ad4:	74 9f       	mul	r23, r20
    3ad6:	f0 0d       	add	r31, r0
    3ad8:	65 9f       	mul	r22, r21
    3ada:	f0 0d       	add	r31, r0
    3adc:	99 27       	eor	r25, r25
    3ade:	72 9f       	mul	r23, r18
    3ae0:	b0 0d       	add	r27, r0
    3ae2:	e1 1d       	adc	r30, r1
    3ae4:	f9 1f       	adc	r31, r25
    3ae6:	63 9f       	mul	r22, r19
    3ae8:	b0 0d       	add	r27, r0
    3aea:	e1 1d       	adc	r30, r1
    3aec:	f9 1f       	adc	r31, r25
    3aee:	bd 01       	movw	r22, r26
    3af0:	cf 01       	movw	r24, r30
    3af2:	11 24       	eor	r1, r1
    3af4:	08 95       	ret

00003af6 <__udivmodsi4>:
    3af6:	a1 e2       	ldi	r26, 0x21	; 33
    3af8:	1a 2e       	mov	r1, r26
    3afa:	aa 1b       	sub	r26, r26
    3afc:	bb 1b       	sub	r27, r27
    3afe:	fd 01       	movw	r30, r26
    3b00:	0d c0       	rjmp	.+26     	; 0x3b1c <__udivmodsi4_ep>

00003b02 <__udivmodsi4_loop>:
    3b02:	aa 1f       	adc	r26, r26
    3b04:	bb 1f       	adc	r27, r27
    3b06:	ee 1f       	adc	r30, r30
    3b08:	ff 1f       	adc	r31, r31
    3b0a:	a2 17       	cp	r26, r18
    3b0c:	b3 07       	cpc	r27, r19
    3b0e:	e4 07       	cpc	r30, r20
    3b10:	f5 07       	cpc	r31, r21
    3b12:	20 f0       	brcs	.+8      	; 0x3b1c <__udivmodsi4_ep>
    3b14:	a2 1b       	sub	r26, r18
    3b16:	b3 0b       	sbc	r27, r19
    3b18:	e4 0b       	sbc	r30, r20
    3b1a:	f5 0b       	sbc	r31, r21

00003b1c <__udivmodsi4_ep>:
    3b1c:	66 1f       	adc	r22, r22
    3b1e:	77 1f       	adc	r23, r23
    3b20:	88 1f       	adc	r24, r24
    3b22:	99 1f       	adc	r25, r25
    3b24:	1a 94       	dec	r1
    3b26:	69 f7       	brne	.-38     	; 0x3b02 <__udivmodsi4_loop>
    3b28:	60 95       	com	r22
    3b2a:	70 95       	com	r23
    3b2c:	80 95       	com	r24
    3b2e:	90 95       	com	r25
    3b30:	9b 01       	movw	r18, r22
    3b32:	ac 01       	movw	r20, r24
    3b34:	bd 01       	movw	r22, r26
    3b36:	cf 01       	movw	r24, r30
    3b38:	08 95       	ret

00003b3a <__divmodsi4>:
    3b3a:	97 fb       	bst	r25, 7
    3b3c:	09 2e       	mov	r0, r25
    3b3e:	05 26       	eor	r0, r21
    3b40:	0e d0       	rcall	.+28     	; 0x3b5e <__divmodsi4_neg1>
    3b42:	57 fd       	sbrc	r21, 7
    3b44:	04 d0       	rcall	.+8      	; 0x3b4e <__divmodsi4_neg2>
    3b46:	d7 df       	rcall	.-82     	; 0x3af6 <__udivmodsi4>
    3b48:	0a d0       	rcall	.+20     	; 0x3b5e <__divmodsi4_neg1>
    3b4a:	00 1c       	adc	r0, r0
    3b4c:	38 f4       	brcc	.+14     	; 0x3b5c <__divmodsi4_exit>

00003b4e <__divmodsi4_neg2>:
    3b4e:	50 95       	com	r21
    3b50:	40 95       	com	r20
    3b52:	30 95       	com	r19
    3b54:	21 95       	neg	r18
    3b56:	3f 4f       	sbci	r19, 0xFF	; 255
    3b58:	4f 4f       	sbci	r20, 0xFF	; 255
    3b5a:	5f 4f       	sbci	r21, 0xFF	; 255

00003b5c <__divmodsi4_exit>:
    3b5c:	08 95       	ret

00003b5e <__divmodsi4_neg1>:
    3b5e:	f6 f7       	brtc	.-4      	; 0x3b5c <__divmodsi4_exit>
    3b60:	90 95       	com	r25
    3b62:	80 95       	com	r24
    3b64:	70 95       	com	r23
    3b66:	61 95       	neg	r22
    3b68:	7f 4f       	sbci	r23, 0xFF	; 255
    3b6a:	8f 4f       	sbci	r24, 0xFF	; 255
    3b6c:	9f 4f       	sbci	r25, 0xFF	; 255
    3b6e:	08 95       	ret

00003b70 <__prologue_saves__>:
    3b70:	2f 92       	push	r2
    3b72:	3f 92       	push	r3
    3b74:	4f 92       	push	r4
    3b76:	5f 92       	push	r5
    3b78:	6f 92       	push	r6
    3b7a:	7f 92       	push	r7
    3b7c:	8f 92       	push	r8
    3b7e:	9f 92       	push	r9
    3b80:	af 92       	push	r10
    3b82:	bf 92       	push	r11
    3b84:	cf 92       	push	r12
    3b86:	df 92       	push	r13
    3b88:	ef 92       	push	r14
    3b8a:	ff 92       	push	r15
    3b8c:	0f 93       	push	r16
    3b8e:	1f 93       	push	r17
    3b90:	cf 93       	push	r28
    3b92:	df 93       	push	r29
    3b94:	cd b7       	in	r28, 0x3d	; 61
    3b96:	de b7       	in	r29, 0x3e	; 62
    3b98:	ca 1b       	sub	r28, r26
    3b9a:	db 0b       	sbc	r29, r27
    3b9c:	0f b6       	in	r0, 0x3f	; 63
    3b9e:	f8 94       	cli
    3ba0:	de bf       	out	0x3e, r29	; 62
    3ba2:	0f be       	out	0x3f, r0	; 63
    3ba4:	cd bf       	out	0x3d, r28	; 61
    3ba6:	09 94       	ijmp

00003ba8 <__epilogue_restores__>:
    3ba8:	2a 88       	ldd	r2, Y+18	; 0x12
    3baa:	39 88       	ldd	r3, Y+17	; 0x11
    3bac:	48 88       	ldd	r4, Y+16	; 0x10
    3bae:	5f 84       	ldd	r5, Y+15	; 0x0f
    3bb0:	6e 84       	ldd	r6, Y+14	; 0x0e
    3bb2:	7d 84       	ldd	r7, Y+13	; 0x0d
    3bb4:	8c 84       	ldd	r8, Y+12	; 0x0c
    3bb6:	9b 84       	ldd	r9, Y+11	; 0x0b
    3bb8:	aa 84       	ldd	r10, Y+10	; 0x0a
    3bba:	b9 84       	ldd	r11, Y+9	; 0x09
    3bbc:	c8 84       	ldd	r12, Y+8	; 0x08
    3bbe:	df 80       	ldd	r13, Y+7	; 0x07
    3bc0:	ee 80       	ldd	r14, Y+6	; 0x06
    3bc2:	fd 80       	ldd	r15, Y+5	; 0x05
    3bc4:	0c 81       	ldd	r16, Y+4	; 0x04
    3bc6:	1b 81       	ldd	r17, Y+3	; 0x03
    3bc8:	aa 81       	ldd	r26, Y+2	; 0x02
    3bca:	b9 81       	ldd	r27, Y+1	; 0x01
    3bcc:	ce 0f       	add	r28, r30
    3bce:	d1 1d       	adc	r29, r1
    3bd0:	0f b6       	in	r0, 0x3f	; 63
    3bd2:	f8 94       	cli
    3bd4:	de bf       	out	0x3e, r29	; 62
    3bd6:	0f be       	out	0x3f, r0	; 63
    3bd8:	cd bf       	out	0x3d, r28	; 61
    3bda:	ed 01       	movw	r28, r26
    3bdc:	08 95       	ret

00003bde <_exit>:
    3bde:	f8 94       	cli

00003be0 <__stop_program>:
    3be0:	ff cf       	rjmp	.-2      	; 0x3be0 <__stop_program>
